

Microchip MPLAB XC8 Assembler V2.10 build 88905656 
                                                                                               Fri Sep 04 23:50:44 2020

Microchip MPLAB XC8 C Compiler v2.10 (Free license) build 20190730164152 Og1 
     1                           	processor	18F458
     2                           	fnconf	rparam,??,?,0
     3                           	opt	pw 120
     4                           	opt	flic
     5                           	psect	smallconst,global,reloc=2,class=SMALLCONST,delta=1,noexec
     6                           	psect	cinit,global,reloc=2,class=CODE,delta=1
     7                           	psect	bssCOMRAM,global,class=COMRAM,space=1,delta=1,noexec
     8                           	psect	cstackBANK0,global,class=BANK0,space=1,delta=1,noexec
     9                           	psect	cstackCOMRAM,global,class=COMRAM,space=1,delta=1,noexec
    10                           	psect	text0,global,reloc=2,class=CODE,delta=1
    11                           	psect	text1,global,reloc=2,class=CODE,delta=1
    12                           	psect	text2,global,reloc=2,class=CODE,delta=1
    13                           	psect	text3,global,reloc=2,class=CODE,delta=1
    14                           	psect	text4,global,reloc=2,class=CODE,delta=1
    15                           	psect	text5,global,reloc=2,class=CODE,delta=1
    16                           	psect	text6,global,reloc=2,class=CODE,delta=1
    17                           	psect	text7,global,reloc=2,class=CODE,delta=1
    18                           	psect	text8,global,reloc=2,class=CODE,delta=1
    19                           	psect	text9,global,reloc=2,class=CODE,delta=1
    20                           	psect	text10,global,reloc=2,class=CODE,delta=1
    21                           	psect	text11,global,reloc=2,class=CODE,delta=1
    22                           	psect	text12,global,reloc=2,class=CODE,delta=1
    23                           	psect	intcode,global,reloc=2,class=CODE,delta=1
    24                           	psect	text14,global,reloc=2,class=CODE,delta=1
    25                           	psect	text15,global,reloc=2,class=CODE,delta=1
    26                           	psect	text16,global,reloc=2,class=CODE,delta=1
    27                           	psect	text17,global,reloc=2,class=CODE,delta=1
    28                           	psect	text18,global,reloc=2,class=CODE,delta=1
    29                           	psect	text19,global,reloc=2,class=CODE,delta=1
    30                           	psect	text20,global,reloc=2,class=CODE,delta=1
    31                           	psect	text21,global,reloc=2,class=CODE,delta=1
    32                           	psect	intsave_regs,global,class=BIGRAM,space=1,delta=1,noexec
    33                           	psect	rparam,global,class=COMRAM,space=1,delta=1,noexec
    34                           	psect	temp,global,ovrld,common,class=COMRAM,space=1,delta=1
    35  0000                     
    36                           ; Version 2.10
    37                           ; Generated 31/07/2019 GMT
    38                           ; 
    39                           ; Copyright © 2019, Microchip Technology Inc. and its subsidiaries ("Microchip")
    40                           ; All rights reserved.
    41                           ; 
    42                           ; This software is developed by Microchip Technology Inc. and its subsidiaries ("Microch
      +                          ip").
    43                           ; 
    44                           ; Redistribution and use in source and binary forms, with or without modification, are
    45                           ; permitted provided that the following conditions are met:
    46                           ; 
    47                           ;     1. Redistributions of source code must retain the above copyright notice, this lis
      +                          t of
    48                           ;        conditions and the following disclaimer.
    49                           ; 
    50                           ;     2. Redistributions in binary form must reproduce the above copyright notice, this 
      +                          list
    51                           ;        of conditions and the following disclaimer in the documentation and/or other
    52                           ;        materials provided with the distribution.
    53                           ; 
    54                           ;     3. Microchip's name may not be used to endorse or promote products derived from th
      +                          is
    55                           ;        software without specific prior written permission.
    56                           ; 
    57                           ; THIS SOFTWARE IS PROVIDED BY MICROCHIP "AS IS" AND ANY EXPRESS OR IMPLIED WARRANTIES,
    58                           ; INCLUDING, BUT NOT LIMITED TO, THE IMPLIED WARRANTIES OF MERCHANTABILITY AND FITNESS F
      +                          OR
    59                           ; PURPOSE ARE DISCLAIMED.  IN NO EVENT SHALL MICROCHIP BE LIABLE FOR ANY DIRECT, INDIREC
      +                          T,
    60                           ; INCIDENTAL, SPECIAL, EXEMPLARY, OR CONSEQUENTIAL DAMAGES (INCLUDING BUT NOT LIMITED TO
    61                           ; PROCUREMENT OF SUBSTITUTE GOODS OR SERVICES; LOSS OF USE, DATA OR PROFITS; OR BUSINESS
    62                           ; INTERRUPTION) HOWSOEVER CAUSED AND ON ANY THEORY OF LIABILITY, WHETHER IN CONTRACT, ST
      +                          RICT
    63                           ; LIABILITY, OR TORT (INCLUDING NEGLIGENCE OR OTHERWISE) ARISING IN ANY WAY OUT OF THE U
      +                          SE OF
    64                           ; THIS SOFTWARE, EVEN IF ADVISED OF THE POSSIBILITY OF SUCH DAMAGE.
    65                           ; 
    66                           ; 
    67                           ; Code-generator required, PIC18F458 Definitions
    68                           ; 
    69                           ; SFR Addresses
    70  0000                     
    71                           	psect	smallconst
    72  000600                     __psmallconst:
    73                           	opt callstack 0
    74  000600  00                 	db	0
    75  000601                     _master_pass:
    76                           	opt callstack 0
    77  000601  0001               	dw	1
    78  000603  0001               	dw	1
    79  000605  0001               	dw	1
    80  000607  0001               	dw	1
    81  000609  0001               	dw	1
    82  00060B                     __end_of_master_pass:
    83                           	opt callstack 0
    84  0000                     _EEADR	set	4009
    85  0000                     _PIR2bits	set	4001
    86  0000                     _EECON2	set	4007
    87  0000                     _EEDATA	set	4008
    88  0000                     _EECON1bits	set	4006
    89  0000                     _PORTBbits	set	3969
    90  0000                     _PORTD	set	3971
    91  0000                     _PORTCbits	set	3970
    92  0000                     _TRISE	set	3990
    93  0000                     _PORTC	set	3970
    94  0000                     _PORTA	set	3968
    95  0000                     _TRISA	set	3986
    96  0000                     _TRISC	set	3988
    97  0000                     _TRISB	set	3987
    98  0000                     _TRISD	set	3989
    99  0000                     _PORTAbits	set	3968
   100  0000                     _GIE	set	32663
   101  0000                     _INT0IE	set	32660
   102  0000                     _INT0IF	set	32657
   103  00060B                     STR_13:
   104  00060B  50                 	db	80	;'P'
   105  00060C  41                 	db	65	;'A'
   106  00060D  53                 	db	83	;'S'
   107  00060E  53                 	db	83	;'S'
   108  00060F  57                 	db	87	;'W'
   109  000610  4F                 	db	79	;'O'
   110  000611  52                 	db	82	;'R'
   111  000612  44                 	db	68	;'D'
   112  000613  20                 	db	32
   113  000614  43                 	db	67	;'C'
   114  000615  48                 	db	72	;'H'
   115  000616  41                 	db	65	;'A'
   116  000617  4E                 	db	78	;'N'
   117  000618  47                 	db	71	;'G'
   118  000619  45                 	db	69	;'E'
   119  00061A  44                 	db	68	;'D'
   120  00061B  00                 	db	0
   121  00061C                     STR_10:
   122  00061C  57                 	db	87	;'W'
   123  00061D  52                 	db	82	;'R'
   124  00061E  4F                 	db	79	;'O'
   125  00061F  4E                 	db	78	;'N'
   126  000620  47                 	db	71	;'G'
   127  000621  20                 	db	32
   128  000622  4D                 	db	77	;'M'
   129  000623  41                 	db	65	;'A'
   130  000624  53                 	db	83	;'S'
   131  000625  54                 	db	84	;'T'
   132  000626  45                 	db	69	;'E'
   133  000627  52                 	db	82	;'R'
   134  000628  20                 	db	32
   135  000629  50                 	db	80	;'P'
   136  00062A  57                 	db	87	;'W'
   137  00062B  44                 	db	68	;'D'
   138  00062C  00                 	db	0
   139  00062D                     STR_9:
   140  00062D  45                 	db	69	;'E'
   141  00062E  4E                 	db	78	;'N'
   142  00062F  54                 	db	84	;'T'
   143  000630  45                 	db	69	;'E'
   144  000631  52                 	db	82	;'R'
   145  000632  20                 	db	32
   146  000633  4D                 	db	77	;'M'
   147  000634  41                 	db	65	;'A'
   148  000635  53                 	db	83	;'S'
   149  000636  54                 	db	84	;'T'
   150  000637  45                 	db	69	;'E'
   151  000638  52                 	db	82	;'R'
   152  000639  20                 	db	32
   153  00063A  50                 	db	80	;'P'
   154  00063B  57                 	db	87	;'W'
   155  00063C  44                 	db	68	;'D'
   156  00063D  00                 	db	0
   157  00063E                     STR_8:
   158  00063E  50                 	db	80	;'P'
   159  00063F  4C                 	db	76	;'L'
   160  000640  45                 	db	69	;'E'
   161  000641  41                 	db	65	;'A'
   162  000642  53                 	db	83	;'S'
   163  000643  45                 	db	69	;'E'
   164  000644  20                 	db	32
   165  000645  52                 	db	82	;'R'
   166  000646  45                 	db	69	;'E'
   167  000647  53                 	db	83	;'S'
   168  000648  45                 	db	69	;'E'
   169  000649  54                 	db	84	;'T'
   170  00064A  20                 	db	32
   171  00064B  50                 	db	80	;'P'
   172  00064C  57                 	db	87	;'W'
   173  00064D  44                 	db	68	;'D'
   174  00064E  00                 	db	0
   175  00064F                     STR_2:
   176  00064F  45                 	db	69	;'E'
   177  000650  4E                 	db	78	;'N'
   178  000651  54                 	db	84	;'T'
   179  000652  45                 	db	69	;'E'
   180  000653  52                 	db	82	;'R'
   181  000654  20                 	db	32
   182  000655  50                 	db	80	;'P'
   183  000656  41                 	db	65	;'A'
   184  000657  53                 	db	83	;'S'
   185  000658  53                 	db	83	;'S'
   186  000659  20                 	db	32
   187  00065A  41                 	db	65	;'A'
   188  00065B  47                 	db	71	;'G'
   189  00065C  41                 	db	65	;'A'
   190  00065D  49                 	db	73	;'I'
   191  00065E  4E                 	db	78	;'N'
   192  00065F  00                 	db	0
   193  000660                     STR_4:
   194  000660  41                 	db	65	;'A'
   195  000661  43                 	db	67	;'C'
   196  000662  43                 	db	67	;'C'
   197  000663  45                 	db	69	;'E'
   198  000664  53                 	db	83	;'S'
   199  000665  53                 	db	83	;'S'
   200  000666  20                 	db	32
   201  000667  47                 	db	71	;'G'
   202  000668  52                 	db	82	;'R'
   203  000669  41                 	db	65	;'A'
   204  00066A  4E                 	db	78	;'N'
   205  00066B  54                 	db	84	;'T'
   206  00066C  45                 	db	69	;'E'
   207  00066D  44                 	db	68	;'D'
   208  00066E  00                 	db	0
   209  00066F                     STR_1:
   210  00066F  45                 	db	69	;'E'
   211  000670  4E                 	db	78	;'N'
   212  000671  54                 	db	84	;'T'
   213  000672  45                 	db	69	;'E'
   214  000673  52                 	db	82	;'R'
   215  000674  20                 	db	32
   216  000675  50                 	db	80	;'P'
   217  000676  41                 	db	65	;'A'
   218  000677  53                 	db	83	;'S'
   219  000678  53                 	db	83	;'S'
   220  000679  57                 	db	87	;'W'
   221  00067A  4F                 	db	79	;'O'
   222  00067B  52                 	db	82	;'R'
   223  00067C  44                 	db	68	;'D'
   224  00067D  00                 	db	0
   225  00067E                     STR_12:
   226  00067E  45                 	db	69	;'E'
   227  00067F  4E                 	db	78	;'N'
   228  000680  54                 	db	84	;'T'
   229  000681  45                 	db	69	;'E'
   230  000682  52                 	db	82	;'R'
   231  000683  20                 	db	32
   232  000684  4E                 	db	78	;'N'
   233  000685  45                 	db	69	;'E'
   234  000686  57                 	db	87	;'W'
   235  000687  20                 	db	32
   236  000688  50                 	db	80	;'P'
   237  000689  41                 	db	65	;'A'
   238  00068A  53                 	db	83	;'S'
   239  00068B  53                 	db	83	;'S'
   240  00068C  00                 	db	0
   241  00068D                     STR_5:
   242  00068D  41                 	db	65	;'A'
   243  00068E  43                 	db	67	;'C'
   244  00068F  43                 	db	67	;'C'
   245  000690  45                 	db	69	;'E'
   246  000691  53                 	db	83	;'S'
   247  000692  53                 	db	83	;'S'
   248  000693  20                 	db	32
   249  000694  44                 	db	68	;'D'
   250  000695  41                 	db	65	;'A'
   251  000696  4E                 	db	78	;'N'
   252  000697  49                 	db	73	;'I'
   253  000698  45                 	db	69	;'E'
   254  000699  44                 	db	68	;'D'
   255  00069A  00                 	db	0
   256  00069B                     STR_14:
   257  00069B  53                 	db	83	;'S'
   258  00069C  55                 	db	85	;'U'
   259  00069D  43                 	db	67	;'C'
   260  00069E  43                 	db	67	;'C'
   261  00069F  45                 	db	69	;'E'
   262  0006A0  53                 	db	83	;'S'
   263  0006A1  53                 	db	83	;'S'
   264  0006A2  46                 	db	70	;'F'
   265  0006A3  55                 	db	85	;'U'
   266  0006A4  4C                 	db	76	;'L'
   267  0006A5  4C                 	db	76	;'L'
   268  0006A6  59                 	db	89	;'Y'
   269  0006A7  00                 	db	0
   270  0006A8                     STR_11:
   271  0006A8  54                 	db	84	;'T'
   272  0006A9  52                 	db	82	;'R'
   273  0006AA  59                 	db	89	;'Y'
   274  0006AB  20                 	db	32
   275  0006AC  41                 	db	65	;'A'
   276  0006AD  47                 	db	71	;'G'
   277  0006AE  41                 	db	65	;'A'
   278  0006AF  49                 	db	73	;'I'
   279  0006B0  4E                 	db	78	;'N'
   280  0006B1  00                 	db	0
   281  0006B2                     STR_3:
   282  0006B2  4C                 	db	76	;'L'
   283  0006B3  41                 	db	65	;'A'
   284  0006B4  53                 	db	83	;'S'
   285  0006B5  54                 	db	84	;'T'
   286  0006B6  20                 	db	32
   287  0006B7  54                 	db	84	;'T'
   288  0006B8  52                 	db	82	;'R'
   289  0006B9  59                 	db	89	;'Y'
   290  0006BA  00                 	db	0
   291  0000                     
   292                           ; #config settings
   293  0006BB  00                 	db	0	; dummy byte at the end
   294  0000                     
   295                           	psect	cinit
   296  001F02                     __pcinit:
   297                           	opt callstack 0
   298  001F02                     start_initialization:
   299                           	opt callstack 0
   300  001F02                     __initialization:
   301                           	opt callstack 0
   302                           
   303                           ; Clear objects allocated to COMRAM (32 bytes)
   304  001F02  EE00  F027         	lfsr	0,__pbssCOMRAM
   305  001F06  0E20               	movlw	32
   306  001F08                     clear_0:
   307  001F08  6AEE               	clrf	postinc0,c
   308  001F0A  06E8               	decf	wreg,f,c
   309  001F0C  E1FD               	bnz	clear_0
   310  001F0E                     end_of_initialization:
   311                           	opt callstack 0
   312  001F0E                     __end_of__initialization:
   313                           	opt callstack 0
   314  001F0E  9047               	bcf	int$flags,0,c	;clear compiler interrupt flag (level 1)
   315  001F10  9247               	bcf	int$flags,1,c	;clear compiler interrupt flag (level 2)
   316  001F12  0E00               	movlw	low (__Lsmallconst shr (0+16))
   317  001F14  6EF8               	movwf	tblptru,c
   318  001F16  0E06               	movlw	high __Lsmallconst
   319  001F18  6EF7               	movwf	tblptrh,c
   320  001F1A  0100               	movlb	0
   321  001F1C  EFF9  F00E         	goto	_main	;jump to C main() function
   322                           
   323                           	psect	bssCOMRAM
   324  000027                     __pbssCOMRAM:
   325                           	opt callstack 0
   326  000027                     _password:
   327                           	opt callstack 0
   328  000027                     	ds	10
   329  000031                     _check_m:
   330                           	opt callstack 0
   331  000031                     	ds	10
   332  00003B                     _check:
   333                           	opt callstack 0
   334  00003B                     	ds	10
   335  000045                     _count:
   336                           	opt callstack 0
   337  000045                     	ds	2
   338                           
   339                           	psect	cstackBANK0
   340  000060                     __pcstackBANK0:
   341                           	opt callstack 0
   342  000060                     change_pass@temp_1:
   343                           	opt callstack 0
   344                           
   345                           ; 2 bytes @ 0x0
   346  000060                     	ds	2
   347  000062                     master_pass_fun@temp_1:
   348                           	opt callstack 0
   349                           
   350                           ; 2 bytes @ 0x2
   351  000062                     	ds	2
   352  000064                     check_pass@temp:
   353                           	opt callstack 0
   354                           
   355                           ; 2 bytes @ 0x4
   356  000064                     	ds	2
   357                           
   358                           	psect	cstackCOMRAM
   359  000001                     __pcstackCOMRAM:
   360                           	opt callstack 0
   361  000001                     ?i2_keypad:
   362                           	opt callstack 0
   363  000001                     i2delay@ms:
   364                           	opt callstack 0
   365                           
   366                           ; 2 bytes @ 0x0
   367  000001                     	ds	2
   368  000003                     ??i2_delay:
   369                           
   370                           ; 1 bytes @ 0x2
   371  000003                     	ds	1
   372  000004                     i2delay@i:
   373                           	opt callstack 0
   374                           
   375                           ; 2 bytes @ 0x3
   376  000004                     	ds	2
   377  000006                     i2delay@j:
   378                           	opt callstack 0
   379                           
   380                           ; 2 bytes @ 0x5
   381  000006                     	ds	2
   382  000008                     i2lcdcmd@value:
   383                           	opt callstack 0
   384  000008                     i2lcddata@value:
   385                           	opt callstack 0
   386                           
   387                           ; 1 bytes @ 0x7
   388  000008                     	ds	1
   389  000009                     i2lcd_string@str:
   390                           	opt callstack 0
   391                           
   392                           ; 2 bytes @ 0x8
   393  000009                     	ds	2
   394  00000B                     i2lcd_string@num:
   395                           	opt callstack 0
   396                           
   397                           ; 1 bytes @ 0xA
   398  00000B                     	ds	1
   399  00000C                     ??i2_lcd_string:
   400                           
   401                           ; 1 bytes @ 0xB
   402  00000C                     	ds	2
   403  00000E                     i2lcd_string@i:
   404                           	opt callstack 0
   405                           
   406                           ; 2 bytes @ 0xD
   407  00000E                     	ds	2
   408  000010                     i2change_pass@temp_1:
   409                           	opt callstack 0
   410                           
   411                           ; 2 bytes @ 0xF
   412  000010                     	ds	2
   413  000012                     i2master_pass_fun@temp_1:
   414                           	opt callstack 0
   415                           
   416                           ; 2 bytes @ 0x11
   417  000012                     	ds	2
   418  000014                     ??_ISR:
   419                           
   420                           ; 1 bytes @ 0x13
   421  000014                     	ds	4
   422  000018                     ?_keypad:
   423                           	opt callstack 0
   424  000018                     ?_EE_READ:
   425                           	opt callstack 0
   426  000018                     delay@ms:
   427                           	opt callstack 0
   428                           
   429                           ; 2 bytes @ 0x17
   430  000018                     	ds	2
   431  00001A                     ??_delay:
   432  00001A                     
   433                           ; 1 bytes @ 0x19
   434  00001A                     	ds	1
   435  00001B                     delay@i:
   436                           	opt callstack 0
   437                           
   438                           ; 2 bytes @ 0x1A
   439  00001B                     	ds	2
   440  00001D                     delay@j:
   441                           	opt callstack 0
   442                           
   443                           ; 2 bytes @ 0x1C
   444  00001D                     	ds	2
   445  00001F                     lcdcmd@value:
   446                           	opt callstack 0
   447  00001F                     lcddata@value:
   448                           	opt callstack 0
   449                           
   450                           ; 1 bytes @ 0x1E
   451  00001F                     	ds	1
   452  000020                     lcd_string@str:
   453                           	opt callstack 0
   454                           
   455                           ; 2 bytes @ 0x1F
   456  000020                     	ds	2
   457  000022                     lcd_string@num:
   458                           	opt callstack 0
   459                           
   460                           ; 1 bytes @ 0x21
   461  000022                     	ds	1
   462  000023                     ??_lcd_string:
   463                           
   464                           ; 1 bytes @ 0x22
   465  000023                     	ds	2
   466  000025                     lcd_string@i:
   467                           	opt callstack 0
   468                           
   469                           ; 2 bytes @ 0x24
   470  000025                     	ds	2
   471  000027                     
   472                           ; 1 bytes @ 0x26
   473 ;;
   474 ;;Main: autosize = 0, tempsize = 0, incstack = 0, save=0
   475 ;;
   476 ;; *************** function _main *****************
   477 ;; Defined at:
   478 ;;		line 93 in file "Keypad_Security_Lock.c"
   479 ;; Parameters:    Size  Location     Type
   480 ;;		None
   481 ;; Auto vars:     Size  Location     Type
   482 ;;		None
   483 ;; Return value:  Size  Location     Type
   484 ;;                  1    wreg      void 
   485 ;; Registers used:
   486 ;;		wreg, status,2, status,0, tblptrl, tblptrh, tblptru, cstack
   487 ;; Tracked objects:
   488 ;;		On entry : 0/0
   489 ;;		On exit  : 0/0
   490 ;;		Unchanged: 0/0
   491 ;; Data sizes:     COMRAM   BANK0   BANK1   BANK2   BANK3   BANK4   BANK5
   492 ;;      Params:         0       0       0       0       0       0       0
   493 ;;      Locals:         0       0       0       0       0       0       0
   494 ;;      Temps:          0       0       0       0       0       0       0
   495 ;;      Totals:         0       0       0       0       0       0       0
   496 ;;Total ram usage:        0 bytes
   497 ;; Hardware stack levels required when called:   12
   498 ;; This function calls:
   499 ;;		_check_pass
   500 ;;		_lcd_initialize
   501 ;; This function is called by:
   502 ;;		Startup code after reset
   503 ;; This function uses a non-reentrant model
   504 ;;
   505                           
   506                           	psect	text0
   507  001DF2                     __ptext0:
   508                           	opt callstack 0
   509  001DF2                     _main:
   510                           	opt callstack 19
   511  001DF2  FFFF               	dw	65535	; assembler added errata NOP
   512                           
   513                           ;Keypad_Security_Lock.c: 94:     TRISD=0x00;
   514  001DF4  0E00               	movlw	0
   515  001DF6  6E95               	movwf	149,c	;volatile
   516                           
   517                           ;Keypad_Security_Lock.c: 95:     TRISB=0x07;
   518  001DF8  0E07               	movlw	7
   519  001DFA  6E93               	movwf	147,c	;volatile
   520                           
   521                           ;Keypad_Security_Lock.c: 96:     TRISC=0xF0;
   522  001DFC  0EF0               	movlw	240
   523  001DFE  6E94               	movwf	148,c	;volatile
   524                           
   525                           ;Keypad_Security_Lock.c: 97:     TRISA=0x00;
   526  001E00  0E00               	movlw	0
   527  001E02  6E92               	movwf	146,c	;volatile
   528                           
   529                           ;Keypad_Security_Lock.c: 98:     PORTA=0x00;
   530  001E04  0E00               	movlw	0
   531  001E06  6E80               	movwf	128,c	;volatile
   532                           
   533                           ;Keypad_Security_Lock.c: 99:     PORTC=0x00;
   534  001E08  0E00               	movlw	0
   535  001E0A  6E82               	movwf	130,c	;volatile
   536                           
   537                           ;Keypad_Security_Lock.c: 100:     TRISE=0x00;
   538  001E0C  0E00               	movlw	0
   539  001E0E  6E96               	movwf	150,c	;volatile
   540  001E10                     
   541                           ;Keypad_Security_Lock.c: 101:     lcd_initialize();
   542  001E10  EC90  F00F         	call	_lcd_initialize	;wreg free
   543  001E14                     
   544                           ;Keypad_Security_Lock.c: 102:     INT0IE=1;
   545  001E14  88F2               	bsf	4082,4,c	;volatile
   546  001E16                     
   547                           ;Keypad_Security_Lock.c: 103:     GIE=1;
   548  001E16  8EF2               	bsf	4082,7,c	;volatile
   549  001E18                     
   550                           ;Keypad_Security_Lock.c: 104:     INT0IF=0;
   551  001E18  92F2               	bcf	4082,1,c	;volatile
   552  001E1A                     l3157:
   553  001E1A  FFFF               	dw	65535	; assembler added errata NOP
   554                           
   555                           ;Keypad_Security_Lock.c: 106:         PORTAbits.RA2=1;
   556  001E1C  8480               	bsf	128,2,c	;volatile
   557  001E1E                     
   558                           ;Keypad_Security_Lock.c: 107:         check_pass();
   559  001E1E  EC5E  F003         	call	_check_pass	;wreg free
   560  001E22  EF0D  F00F         	goto	l3157
   561  001E26  EF2A  F000         	goto	start
   562  001E2A                     __end_of_main:
   563                           	opt callstack 0
   564                           
   565 ;; *************** function _lcd_initialize *****************
   566 ;; Defined at:
   567 ;;		line 212 in file "Keypad_Security_Lock.c"
   568 ;; Parameters:    Size  Location     Type
   569 ;;		None
   570 ;; Auto vars:     Size  Location     Type
   571 ;;		None
   572 ;; Return value:  Size  Location     Type
   573 ;;                  1    wreg      void 
   574 ;; Registers used:
   575 ;;		wreg, status,2, status,0, cstack
   576 ;; Tracked objects:
   577 ;;		On entry : 0/0
   578 ;;		On exit  : 0/0
   579 ;;		Unchanged: 0/0
   580 ;; Data sizes:     COMRAM   BANK0   BANK1   BANK2   BANK3   BANK4   BANK5
   581 ;;      Params:         0       0       0       0       0       0       0
   582 ;;      Locals:         0       0       0       0       0       0       0
   583 ;;      Temps:          0       0       0       0       0       0       0
   584 ;;      Totals:         0       0       0       0       0       0       0
   585 ;;Total ram usage:        0 bytes
   586 ;; Hardware stack levels used:    1
   587 ;; Hardware stack levels required when called:    8
   588 ;; This function calls:
   589 ;;		_lcdcmd
   590 ;; This function is called by:
   591 ;;		_main
   592 ;; This function uses a non-reentrant model
   593 ;;
   594                           
   595                           	psect	text1
   596  001F20                     __ptext1:
   597                           	opt callstack 0
   598  001F20                     _lcd_initialize:
   599                           	opt callstack 0
   600  001F20  FFFF               	dw	65535	; assembler added errata NOP
   601  001F22                     
   602                           ;Keypad_Security_Lock.c: 213:     lcdcmd(0x38);
   603  001F22  0E38               	movlw	56
   604  001F24  EC41  F00F         	call	_lcdcmd
   605                           
   606                           ;Keypad_Security_Lock.c: 214:     lcdcmd(0x06);
   607  001F28  0E06               	movlw	6
   608  001F2A  EC41  F00F         	call	_lcdcmd
   609                           
   610                           ;Keypad_Security_Lock.c: 215:     lcdcmd(0x0C);
   611  001F2E  0E0C               	movlw	12
   612  001F30  EC41  F00F         	call	_lcdcmd
   613                           
   614                           ;Keypad_Security_Lock.c: 216:     lcdcmd(0x01);
   615  001F34  0E01               	movlw	1
   616  001F36  EC41  F00F         	call	_lcdcmd
   617  001F3A  0012               	return		;funcret
   618  001F3C  FFFF               	dw	65535	; errata NOP
   619  001F3E                     __end_of_lcd_initialize:
   620                           	opt callstack 0
   621                           
   622 ;; *************** function _check_pass *****************
   623 ;; Defined at:
   624 ;;		line 239 in file "Keypad_Security_Lock.c"
   625 ;; Parameters:    Size  Location     Type
   626 ;;		None
   627 ;; Auto vars:     Size  Location     Type
   628 ;;  temp            2    4[BANK0 ] int 
   629 ;; Return value:  Size  Location     Type
   630 ;;                  1    wreg      void 
   631 ;; Registers used:
   632 ;;		wreg, status,2, status,0, tblptrl, tblptrh, tblptru, cstack
   633 ;; Tracked objects:
   634 ;;		On entry : 0/0
   635 ;;		On exit  : 0/0
   636 ;;		Unchanged: 0/0
   637 ;; Data sizes:     COMRAM   BANK0   BANK1   BANK2   BANK3   BANK4   BANK5
   638 ;;      Params:         0       0       0       0       0       0       0
   639 ;;      Locals:         0       2       0       0       0       0       0
   640 ;;      Temps:          0       0       0       0       0       0       0
   641 ;;      Totals:         0       2       0       0       0       0       0
   642 ;;Total ram usage:        2 bytes
   643 ;; Hardware stack levels used:    1
   644 ;; Hardware stack levels required when called:   11
   645 ;; This function calls:
   646 ;;		_delay
   647 ;;		_keypad
   648 ;;		_lcd_string
   649 ;;		_lcdcmd
   650 ;;		_lcddata
   651 ;;		_master_pass_fun
   652 ;;		_read_pass
   653 ;; This function is called by:
   654 ;;		_main
   655 ;; This function uses a non-reentrant model
   656 ;;
   657                           
   658                           	psect	text2
   659  0006BC                     __ptext2:
   660                           	opt callstack 0
   661  0006BC                     _check_pass:
   662                           	opt callstack 0
   663  0006BC  FFFF               	dw	65535	; assembler added errata NOP
   664  0006BE                     
   665                           ;Keypad_Security_Lock.c: 240:  if(count==0){
   666  0006BE  5045               	movf	_count^0,w,c
   667  0006C0  1046               	iorwf	(_count+1)^0,w,c
   668  0006C2  A4D8               	btfss	status,2,c
   669  0006C4  EF66  F003         	goto	u3061
   670  0006C8  EF69  F003         	goto	u3060
   671  0006CC                     u3061:
   672  0006CC  FFFF               	dw	65535	; assembler added errata NOP
   673  0006CE  EF7A  F003         	goto	l3019
   674  0006D2                     u3060:
   675  0006D2  FFFF               	dw	65535	; assembler added errata NOP
   676  0006D4                     
   677                           ;Keypad_Security_Lock.c: 241:      lcdcmd(0x80);
   678  0006D4  0E80               	movlw	128
   679  0006D6  EC41  F00F         	call	_lcdcmd
   680  0006DA                     
   681                           ;Keypad_Security_Lock.c: 242:      lcd_string("ENTER PASSWORD",14);
   682  0006DA  0E6F               	movlw	low STR_1
   683  0006DC  6E20               	movwf	lcd_string@str^0,c
   684  0006DE  0E06               	movlw	high STR_1
   685  0006E0  6E21               	movwf	(lcd_string@str+1)^0,c
   686  0006E2  0E0E               	movlw	14
   687  0006E4  6E22               	movwf	lcd_string@num^0,c
   688  0006E6  ECA1  F00E         	call	_lcd_string	;wreg free
   689  0006EA                     
   690                           ;Keypad_Security_Lock.c: 243:      lcdcmd(0xC0);
   691  0006EA  0EC0               	movlw	192
   692  0006EC  EC41  F00F         	call	_lcdcmd
   693                           
   694                           ;Keypad_Security_Lock.c: 244:  }
   695  0006F0  EFB7  F003         	goto	l3035
   696  0006F4                     l3019:
   697  0006F4  FFFF               	dw	65535	; assembler added errata NOP
   698  0006F6  0445               	decf	_count^0,w,c
   699  0006F8  1046               	iorwf	(_count+1)^0,w,c
   700  0006FA  A4D8               	btfss	status,2,c
   701  0006FC  EF82  F003         	goto	u3071
   702  000700  EF85  F003         	goto	u3070
   703  000704                     u3071:
   704  000704  FFFF               	dw	65535	; assembler added errata NOP
   705  000706  EF99  F003         	goto	l3027
   706  00070A                     u3070:
   707  00070A  FFFF               	dw	65535	; assembler added errata NOP
   708  00070C                     
   709                           ;Keypad_Security_Lock.c: 246:   lcdcmd(0x01);
   710  00070C  0E01               	movlw	1
   711  00070E  EC41  F00F         	call	_lcdcmd
   712                           
   713                           ;Keypad_Security_Lock.c: 247:      lcdcmd(0x80);
   714  000712  0E80               	movlw	128
   715  000714  EC41  F00F         	call	_lcdcmd
   716  000718                     
   717                           ;Keypad_Security_Lock.c: 248:      lcd_string("ENTER PASS AGAIN",16);
   718  000718  0E4F               	movlw	low STR_2
   719  00071A  6E20               	movwf	lcd_string@str^0,c
   720  00071C  0E06               	movlw	high STR_2
   721  00071E  6E21               	movwf	(lcd_string@str+1)^0,c
   722  000720  0E10               	movlw	16
   723  000722  6E22               	movwf	lcd_string@num^0,c
   724  000724  ECA1  F00E         	call	_lcd_string	;wreg free
   725  000728                     
   726                           ;Keypad_Security_Lock.c: 249:      lcdcmd(0xC0);
   727  000728  0EC0               	movlw	192
   728  00072A  EC41  F00F         	call	_lcdcmd
   729                           
   730                           ;Keypad_Security_Lock.c: 250:  }
   731  00072E  EFB7  F003         	goto	l3035
   732  000732                     l3027:
   733  000732  FFFF               	dw	65535	; assembler added errata NOP
   734  000734  0E02               	movlw	2
   735  000736  1845               	xorwf	_count^0,w,c
   736  000738  1046               	iorwf	(_count+1)^0,w,c
   737  00073A  A4D8               	btfss	status,2,c
   738  00073C  EFA2  F003         	goto	u3081
   739  000740  EFA5  F003         	goto	u3080
   740  000744                     u3081:
   741  000744  FFFF               	dw	65535	; assembler added errata NOP
   742  000746  EFB7  F003         	goto	l3035
   743  00074A                     u3080:
   744  00074A  FFFF               	dw	65535	; assembler added errata NOP
   745  00074C                     
   746                           ;Keypad_Security_Lock.c: 252:   lcdcmd(0x01);
   747  00074C  0E01               	movlw	1
   748  00074E  EC41  F00F         	call	_lcdcmd
   749                           
   750                           ;Keypad_Security_Lock.c: 253:   lcdcmd(0x80);
   751  000752  0E80               	movlw	128
   752  000754  EC41  F00F         	call	_lcdcmd
   753  000758                     
   754                           ;Keypad_Security_Lock.c: 254:   lcd_string("LAST TRY",8);
   755  000758  0EB2               	movlw	low STR_3
   756  00075A  6E20               	movwf	lcd_string@str^0,c
   757  00075C  0E06               	movlw	high STR_3
   758  00075E  6E21               	movwf	(lcd_string@str+1)^0,c
   759  000760  0E08               	movlw	8
   760  000762  6E22               	movwf	lcd_string@num^0,c
   761  000764  ECA1  F00E         	call	_lcd_string	;wreg free
   762  000768                     
   763                           ;Keypad_Security_Lock.c: 255:   lcdcmd(0xC0);
   764  000768  0EC0               	movlw	192
   765  00076A  EC41  F00F         	call	_lcdcmd
   766  00076E                     l3035:
   767  00076E  FFFF               	dw	65535	; assembler added errata NOP
   768                           
   769                           ;Keypad_Security_Lock.c: 260:     int temp =keypad();
   770  000770  EC8A  F00B         	call	_keypad	;wreg free
   771  000774  C018  F064         	movff	?_keypad,check_pass@temp
   772  000778  C019  F065         	movff	?_keypad+1,check_pass@temp+1
   773  00077C                     l3037:
   774  00077C  FFFF               	dw	65535	; assembler added errata NOP
   775  00077E  EC8A  F00B         	call	_keypad	;wreg free
   776  000782  0100               	movlb	0	; () banked
   777  000784  5164               	movf	check_pass@temp& (0+255),w,b
   778  000786  1818               	xorwf	?_keypad^0,w,c
   779  000788  E10A               	bnz	u3090
   780  00078A  5165               	movf	(check_pass@temp+1)& (0+255),w,b
   781  00078C  1819               	xorwf	(?_keypad+1)^0,w,c
   782  00078E  B4D8               	btfsc	status,2,c
   783  000790  EFCC  F003         	goto	u3091
   784  000794  EFCF  F003         	goto	u3090
   785  000798                     u3091:
   786  000798  FFFF               	dw	65535	; assembler added errata NOP
   787  00079A  EFBE  F003         	goto	l3037
   788  00079E                     u3090:
   789  00079E  FFFF               	dw	65535	; assembler added errata NOP
   790  0007A0                     
   791                           ; BSR set to: 0
   792                           ;Keypad_Security_Lock.c: 266:     check[0]=keypad();
   793  0007A0  EC8A  F00B         	call	_keypad	;wreg free
   794  0007A4  C018  F03B         	movff	?_keypad,_check
   795  0007A8  C019  F03C         	movff	?_keypad+1,_check+1
   796  0007AC                     
   797                           ;Keypad_Security_Lock.c: 267:     lcddata('*');
   798  0007AC  0E2A               	movlw	42
   799  0007AE  EC51  F00F         	call	_lcddata
   800  0007B2                     l3043:
   801  0007B2  FFFF               	dw	65535	; assembler added errata NOP
   802  0007B4  EC8A  F00B         	call	_keypad	;wreg free
   803  0007B8  503B               	movf	_check^0,w,c
   804  0007BA  1818               	xorwf	?_keypad^0,w,c
   805  0007BC  E10A               	bnz	u3100
   806  0007BE  503C               	movf	(_check+1)^0,w,c
   807  0007C0  1819               	xorwf	(?_keypad+1)^0,w,c
   808  0007C2  B4D8               	btfsc	status,2,c
   809  0007C4  EFE6  F003         	goto	u3101
   810  0007C8  EFE9  F003         	goto	u3100
   811  0007CC                     u3101:
   812  0007CC  FFFF               	dw	65535	; assembler added errata NOP
   813  0007CE  EFD9  F003         	goto	l3043
   814  0007D2                     u3100:
   815  0007D2  FFFF               	dw	65535	; assembler added errata NOP
   816  0007D4                     
   817                           ;Keypad_Security_Lock.c: 273:     temp=keypad();
   818  0007D4  EC8A  F00B         	call	_keypad	;wreg free
   819  0007D8  C018  F064         	movff	?_keypad,check_pass@temp
   820  0007DC  C019  F065         	movff	?_keypad+1,check_pass@temp+1
   821  0007E0                     l3047:
   822  0007E0  FFFF               	dw	65535	; assembler added errata NOP
   823  0007E2  EC8A  F00B         	call	_keypad	;wreg free
   824  0007E6  0100               	movlb	0	; () banked
   825  0007E8  5164               	movf	check_pass@temp& (0+255),w,b
   826  0007EA  1818               	xorwf	?_keypad^0,w,c
   827  0007EC  E10A               	bnz	u3110
   828  0007EE  5165               	movf	(check_pass@temp+1)& (0+255),w,b
   829  0007F0  1819               	xorwf	(?_keypad+1)^0,w,c
   830  0007F2  B4D8               	btfsc	status,2,c
   831  0007F4  EFFE  F003         	goto	u3111
   832  0007F8  EF01  F004         	goto	u3110
   833  0007FC                     u3111:
   834  0007FC  FFFF               	dw	65535	; assembler added errata NOP
   835  0007FE  EFF0  F003         	goto	l3047
   836  000802                     u3110:
   837  000802  FFFF               	dw	65535	; assembler added errata NOP
   838  000804                     
   839                           ; BSR set to: 0
   840                           ;Keypad_Security_Lock.c: 277:     check[1]=keypad();
   841  000804  EC8A  F00B         	call	_keypad	;wreg free
   842  000808  C018  F03D         	movff	?_keypad,_check+2
   843  00080C  C019  F03E         	movff	?_keypad+1,_check+3
   844  000810                     
   845                           ;Keypad_Security_Lock.c: 278:     lcddata('*');
   846  000810  0E2A               	movlw	42
   847  000812  EC51  F00F         	call	_lcddata
   848  000816                     l3053:
   849  000816  FFFF               	dw	65535	; assembler added errata NOP
   850  000818  EC8A  F00B         	call	_keypad	;wreg free
   851  00081C  503D               	movf	(_check+2)^0,w,c
   852  00081E  1818               	xorwf	?_keypad^0,w,c
   853  000820  E10A               	bnz	u3120
   854  000822  503E               	movf	(_check+3)^0,w,c
   855  000824  1819               	xorwf	(?_keypad+1)^0,w,c
   856  000826  B4D8               	btfsc	status,2,c
   857  000828  EF18  F004         	goto	u3121
   858  00082C  EF1B  F004         	goto	u3120
   859  000830                     u3121:
   860  000830  FFFF               	dw	65535	; assembler added errata NOP
   861  000832  EF0B  F004         	goto	l3053
   862  000836                     u3120:
   863  000836  FFFF               	dw	65535	; assembler added errata NOP
   864  000838                     
   865                           ;Keypad_Security_Lock.c: 284:     temp=keypad();
   866  000838  EC8A  F00B         	call	_keypad	;wreg free
   867  00083C  C018  F064         	movff	?_keypad,check_pass@temp
   868  000840  C019  F065         	movff	?_keypad+1,check_pass@temp+1
   869  000844                     l3057:
   870  000844  FFFF               	dw	65535	; assembler added errata NOP
   871  000846  EC8A  F00B         	call	_keypad	;wreg free
   872  00084A  0100               	movlb	0	; () banked
   873  00084C  5164               	movf	check_pass@temp& (0+255),w,b
   874  00084E  1818               	xorwf	?_keypad^0,w,c
   875  000850  E10A               	bnz	u3130
   876  000852  5165               	movf	(check_pass@temp+1)& (0+255),w,b
   877  000854  1819               	xorwf	(?_keypad+1)^0,w,c
   878  000856  B4D8               	btfsc	status,2,c
   879  000858  EF30  F004         	goto	u3131
   880  00085C  EF33  F004         	goto	u3130
   881  000860                     u3131:
   882  000860  FFFF               	dw	65535	; assembler added errata NOP
   883  000862  EF22  F004         	goto	l3057
   884  000866                     u3130:
   885  000866  FFFF               	dw	65535	; assembler added errata NOP
   886  000868                     
   887                           ; BSR set to: 0
   888                           ;Keypad_Security_Lock.c: 287:     check[2]=keypad();
   889  000868  EC8A  F00B         	call	_keypad	;wreg free
   890  00086C  C018  F03F         	movff	?_keypad,_check+4
   891  000870  C019  F040         	movff	?_keypad+1,_check+5
   892  000874                     
   893                           ;Keypad_Security_Lock.c: 288:     lcddata('*');
   894  000874  0E2A               	movlw	42
   895  000876  EC51  F00F         	call	_lcddata
   896  00087A                     l3063:
   897  00087A  FFFF               	dw	65535	; assembler added errata NOP
   898  00087C  EC8A  F00B         	call	_keypad	;wreg free
   899  000880  503F               	movf	(_check+4)^0,w,c
   900  000882  1818               	xorwf	?_keypad^0,w,c
   901  000884  E10A               	bnz	u3140
   902  000886  5040               	movf	(_check+5)^0,w,c
   903  000888  1819               	xorwf	(?_keypad+1)^0,w,c
   904  00088A  B4D8               	btfsc	status,2,c
   905  00088C  EF4A  F004         	goto	u3141
   906  000890  EF4D  F004         	goto	u3140
   907  000894                     u3141:
   908  000894  FFFF               	dw	65535	; assembler added errata NOP
   909  000896  EF3D  F004         	goto	l3063
   910  00089A                     u3140:
   911  00089A  FFFF               	dw	65535	; assembler added errata NOP
   912  00089C                     
   913                           ;Keypad_Security_Lock.c: 294:     temp=keypad();
   914  00089C  EC8A  F00B         	call	_keypad	;wreg free
   915  0008A0  C018  F064         	movff	?_keypad,check_pass@temp
   916  0008A4  C019  F065         	movff	?_keypad+1,check_pass@temp+1
   917  0008A8                     l3067:
   918  0008A8  FFFF               	dw	65535	; assembler added errata NOP
   919  0008AA  EC8A  F00B         	call	_keypad	;wreg free
   920  0008AE  0100               	movlb	0	; () banked
   921  0008B0  5164               	movf	check_pass@temp& (0+255),w,b
   922  0008B2  1818               	xorwf	?_keypad^0,w,c
   923  0008B4  E10A               	bnz	u3150
   924  0008B6  5165               	movf	(check_pass@temp+1)& (0+255),w,b
   925  0008B8  1819               	xorwf	(?_keypad+1)^0,w,c
   926  0008BA  B4D8               	btfsc	status,2,c
   927  0008BC  EF62  F004         	goto	u3151
   928  0008C0  EF65  F004         	goto	u3150
   929  0008C4                     u3151:
   930  0008C4  FFFF               	dw	65535	; assembler added errata NOP
   931  0008C6  EF54  F004         	goto	l3067
   932  0008CA                     u3150:
   933  0008CA  FFFF               	dw	65535	; assembler added errata NOP
   934  0008CC                     
   935                           ; BSR set to: 0
   936                           ;Keypad_Security_Lock.c: 297:     check[3]=keypad();
   937  0008CC  EC8A  F00B         	call	_keypad	;wreg free
   938  0008D0  C018  F041         	movff	?_keypad,_check+6
   939  0008D4  C019  F042         	movff	?_keypad+1,_check+7
   940  0008D8                     
   941                           ;Keypad_Security_Lock.c: 298:     lcddata('*');
   942  0008D8  0E2A               	movlw	42
   943  0008DA  EC51  F00F         	call	_lcddata
   944  0008DE                     l3073:
   945  0008DE  FFFF               	dw	65535	; assembler added errata NOP
   946  0008E0  EC8A  F00B         	call	_keypad	;wreg free
   947  0008E4  5041               	movf	(_check+6)^0,w,c
   948  0008E6  1818               	xorwf	?_keypad^0,w,c
   949  0008E8  E10A               	bnz	u3160
   950  0008EA  5042               	movf	(_check+7)^0,w,c
   951  0008EC  1819               	xorwf	(?_keypad+1)^0,w,c
   952  0008EE  B4D8               	btfsc	status,2,c
   953  0008F0  EF7C  F004         	goto	u3161
   954  0008F4  EF7F  F004         	goto	u3160
   955  0008F8                     u3161:
   956  0008F8  FFFF               	dw	65535	; assembler added errata NOP
   957  0008FA  EF6F  F004         	goto	l3073
   958  0008FE                     u3160:
   959  0008FE  FFFF               	dw	65535	; assembler added errata NOP
   960  000900                     
   961                           ;Keypad_Security_Lock.c: 304:     temp=keypad();
   962  000900  EC8A  F00B         	call	_keypad	;wreg free
   963  000904  C018  F064         	movff	?_keypad,check_pass@temp
   964  000908  C019  F065         	movff	?_keypad+1,check_pass@temp+1
   965  00090C                     l3077:
   966  00090C  FFFF               	dw	65535	; assembler added errata NOP
   967  00090E  EC8A  F00B         	call	_keypad	;wreg free
   968  000912  0100               	movlb	0	; () banked
   969  000914  5164               	movf	check_pass@temp& (0+255),w,b
   970  000916  1818               	xorwf	?_keypad^0,w,c
   971  000918  E10A               	bnz	u3170
   972  00091A  5165               	movf	(check_pass@temp+1)& (0+255),w,b
   973  00091C  1819               	xorwf	(?_keypad+1)^0,w,c
   974  00091E  B4D8               	btfsc	status,2,c
   975  000920  EF94  F004         	goto	u3171
   976  000924  EF97  F004         	goto	u3170
   977  000928                     u3171:
   978  000928  FFFF               	dw	65535	; assembler added errata NOP
   979  00092A  EF86  F004         	goto	l3077
   980  00092E                     u3170:
   981  00092E  FFFF               	dw	65535	; assembler added errata NOP
   982  000930                     
   983                           ; BSR set to: 0
   984                           ;Keypad_Security_Lock.c: 307:     check[4]=keypad();
   985  000930  EC8A  F00B         	call	_keypad	;wreg free
   986  000934  C018  F043         	movff	?_keypad,_check+8
   987  000938  C019  F044         	movff	?_keypad+1,_check+9
   988  00093C                     
   989                           ;Keypad_Security_Lock.c: 308:     lcddata('*');
   990  00093C  0E2A               	movlw	42
   991  00093E  EC51  F00F         	call	_lcddata
   992  000942                     l3083:
   993  000942  FFFF               	dw	65535	; assembler added errata NOP
   994  000944  EC8A  F00B         	call	_keypad	;wreg free
   995  000948  5043               	movf	(_check+8)^0,w,c
   996  00094A  1818               	xorwf	?_keypad^0,w,c
   997  00094C  E10A               	bnz	u3180
   998  00094E  5044               	movf	(_check+9)^0,w,c
   999  000950  1819               	xorwf	(?_keypad+1)^0,w,c
  1000  000952  B4D8               	btfsc	status,2,c
  1001  000954  EFAE  F004         	goto	u3181
  1002  000958  EFB1  F004         	goto	u3180
  1003  00095C                     u3181:
  1004  00095C  FFFF               	dw	65535	; assembler added errata NOP
  1005  00095E  EFA1  F004         	goto	l3083
  1006  000962                     u3180:
  1007  000962  FFFF               	dw	65535	; assembler added errata NOP
  1008  000964                     
  1009                           ;Keypad_Security_Lock.c: 310:     lcdcmd(0x01);
  1010  000964  0E01               	movlw	1
  1011  000966  EC41  F00F         	call	_lcdcmd
  1012  00096A                     
  1013                           ;Keypad_Security_Lock.c: 313:     read_pass();
  1014  00096A  EC74  F00E         	call	_read_pass	;wreg free
  1015  00096E                     
  1016                           ;Keypad_Security_Lock.c: 314:     if(check[0]==password[0] && check[1]==password[1] && c
      +                          heck[2]==password[2] && check[3]==password[3] && check[4]==password[4]){
  1017  00096E  5027               	movf	_password^0,w,c
  1018  000970  183B               	xorwf	_check^0,w,c
  1019  000972  E107               	bnz	u3191
  1020  000974  5028               	movf	(_password+1)^0,w,c
  1021  000976  183C               	xorwf	(_check+1)^0,w,c
  1022  000978  A4D8               	btfss	status,2,c
  1023  00097A  EFC1  F004         	goto	u3191
  1024  00097E  EFC4  F004         	goto	u3190
  1025  000982                     u3191:
  1026  000982  FFFF               	dw	65535	; assembler added errata NOP
  1027  000984  EF17  F005         	goto	l3111
  1028  000988                     u3190:
  1029  000988  FFFF               	dw	65535	; assembler added errata NOP
  1030  00098A  5029               	movf	(_password+2)^0,w,c
  1031  00098C  183D               	xorwf	(_check+2)^0,w,c
  1032  00098E  E107               	bnz	u3201
  1033  000990  502A               	movf	(_password+3)^0,w,c
  1034  000992  183E               	xorwf	(_check+3)^0,w,c
  1035  000994  A4D8               	btfss	status,2,c
  1036  000996  EFCF  F004         	goto	u3201
  1037  00099A  EFD2  F004         	goto	u3200
  1038  00099E                     u3201:
  1039  00099E  FFFF               	dw	65535	; assembler added errata NOP
  1040  0009A0  EF17  F005         	goto	l3111
  1041  0009A4                     u3200:
  1042  0009A4  FFFF               	dw	65535	; assembler added errata NOP
  1043  0009A6  502B               	movf	(_password+4)^0,w,c
  1044  0009A8  183F               	xorwf	(_check+4)^0,w,c
  1045  0009AA  E107               	bnz	u3211
  1046  0009AC  502C               	movf	(_password+5)^0,w,c
  1047  0009AE  1840               	xorwf	(_check+5)^0,w,c
  1048  0009B0  A4D8               	btfss	status,2,c
  1049  0009B2  EFDD  F004         	goto	u3211
  1050  0009B6  EFE0  F004         	goto	u3210
  1051  0009BA                     u3211:
  1052  0009BA  FFFF               	dw	65535	; assembler added errata NOP
  1053  0009BC  EF17  F005         	goto	l3111
  1054  0009C0                     u3210:
  1055  0009C0  FFFF               	dw	65535	; assembler added errata NOP
  1056  0009C2  502D               	movf	(_password+6)^0,w,c
  1057  0009C4  1841               	xorwf	(_check+6)^0,w,c
  1058  0009C6  E107               	bnz	u3221
  1059  0009C8  502E               	movf	(_password+7)^0,w,c
  1060  0009CA  1842               	xorwf	(_check+7)^0,w,c
  1061  0009CC  A4D8               	btfss	status,2,c
  1062  0009CE  EFEB  F004         	goto	u3221
  1063  0009D2  EFEE  F004         	goto	u3220
  1064  0009D6                     u3221:
  1065  0009D6  FFFF               	dw	65535	; assembler added errata NOP
  1066  0009D8  EF17  F005         	goto	l3111
  1067  0009DC                     u3220:
  1068  0009DC  FFFF               	dw	65535	; assembler added errata NOP
  1069  0009DE  502F               	movf	(_password+8)^0,w,c
  1070  0009E0  1843               	xorwf	(_check+8)^0,w,c
  1071  0009E2  E107               	bnz	u3231
  1072  0009E4  5030               	movf	(_password+9)^0,w,c
  1073  0009E6  1844               	xorwf	(_check+9)^0,w,c
  1074  0009E8  A4D8               	btfss	status,2,c
  1075  0009EA  EFF9  F004         	goto	u3231
  1076  0009EE  EFFC  F004         	goto	u3230
  1077  0009F2                     u3231:
  1078  0009F2  FFFF               	dw	65535	; assembler added errata NOP
  1079  0009F4  EF17  F005         	goto	l3111
  1080  0009F8                     u3230:
  1081  0009F8  FFFF               	dw	65535	; assembler added errata NOP
  1082  0009FA                     
  1083                           ;Keypad_Security_Lock.c: 315:         PORTAbits.RA2=0;
  1084  0009FA  9480               	bcf	128,2,c	;volatile
  1085                           
  1086                           ;Keypad_Security_Lock.c: 316:         PORTAbits.RA0=1;
  1087  0009FC  8080               	bsf	128,0,c	;volatile
  1088  0009FE                     
  1089                           ;Keypad_Security_Lock.c: 317:         lcdcmd(0x80);
  1090  0009FE  0E80               	movlw	128
  1091  000A00  EC41  F00F         	call	_lcdcmd
  1092  000A04                     
  1093                           ;Keypad_Security_Lock.c: 318:         lcd_string("ACCESS GRANTED",14);
  1094  000A04  0E60               	movlw	low STR_4
  1095  000A06  6E20               	movwf	lcd_string@str^0,c
  1096  000A08  0E06               	movlw	high STR_4
  1097  000A0A  6E21               	movwf	(lcd_string@str+1)^0,c
  1098  000A0C  0E0E               	movlw	14
  1099  000A0E  6E22               	movwf	lcd_string@num^0,c
  1100  000A10  ECA1  F00E         	call	_lcd_string	;wreg free
  1101  000A14                     
  1102                           ;Keypad_Security_Lock.c: 319:         count=0;
  1103  000A14  0E00               	movlw	0
  1104  000A16  6E46               	movwf	(_count+1)^0,c
  1105  000A18  0E00               	movlw	0
  1106  000A1A  6E45               	movwf	_count^0,c
  1107  000A1C                     
  1108                           ;Keypad_Security_Lock.c: 320:         delay(3000);
  1109  000A1C  0E0B               	movlw	11
  1110  000A1E  6E19               	movwf	(delay@ms+1)^0,c
  1111  000A20  0EB8               	movlw	184
  1112  000A22  6E18               	movwf	delay@ms^0,c
  1113  000A24  EC0A  F00E         	call	_delay	;wreg free
  1114  000A28                     
  1115                           ;Keypad_Security_Lock.c: 321:         PORTAbits.RA0=0;
  1116  000A28  9080               	bcf	128,0,c	;volatile
  1117                           
  1118                           ;Keypad_Security_Lock.c: 322:     }
  1119  000A2A  EF7D  F005         	goto	l210
  1120  000A2E                     l3111:
  1121  000A2E  FFFF               	dw	65535	; assembler added errata NOP
  1122                           
  1123                           ;Keypad_Security_Lock.c: 324:      if(count==0){
  1124  000A30  5045               	movf	_count^0,w,c
  1125  000A32  1046               	iorwf	(_count+1)^0,w,c
  1126  000A34  A4D8               	btfss	status,2,c
  1127  000A36  EF1F  F005         	goto	u3241
  1128  000A3A  EF22  F005         	goto	u3240
  1129  000A3E                     u3241:
  1130  000A3E  FFFF               	dw	65535	; assembler added errata NOP
  1131  000A40  EF3A  F005         	goto	l3123
  1132  000A44                     u3240:
  1133  000A44  FFFF               	dw	65535	; assembler added errata NOP
  1134  000A46                     
  1135                           ;Keypad_Security_Lock.c: 325:          PORTAbits.RA1=1;
  1136  000A46  8280               	bsf	128,1,c	;volatile
  1137  000A48                     
  1138                           ;Keypad_Security_Lock.c: 326:          lcdcmd(0x80);
  1139  000A48  0E80               	movlw	128
  1140  000A4A  EC41  F00F         	call	_lcdcmd
  1141  000A4E                     
  1142                           ;Keypad_Security_Lock.c: 327:          lcd_string("ACCESS DANIED",13);
  1143  000A4E  0E8D               	movlw	low STR_5
  1144  000A50  6E20               	movwf	lcd_string@str^0,c
  1145  000A52  0E06               	movlw	high STR_5
  1146  000A54  6E21               	movwf	(lcd_string@str+1)^0,c
  1147  000A56  0E0D               	movlw	13
  1148  000A58  6E22               	movwf	lcd_string@num^0,c
  1149  000A5A  ECA1  F00E         	call	_lcd_string	;wreg free
  1150  000A5E                     l3119:
  1151  000A5E  FFFF               	dw	65535	; assembler added errata NOP
  1152                           
  1153                           ;Keypad_Security_Lock.c: 328:          delay(500);
  1154  000A60  0E01               	movlw	1
  1155  000A62  6E19               	movwf	(delay@ms+1)^0,c
  1156  000A64  0EF4               	movlw	244
  1157  000A66  6E18               	movwf	delay@ms^0,c
  1158  000A68  EC0A  F00E         	call	_delay	;wreg free
  1159  000A6C                     
  1160                           ;Keypad_Security_Lock.c: 329:          count++;
  1161  000A6C  4A45               	infsnz	_count^0,f,c
  1162  000A6E  2A46               	incf	(_count+1)^0,f,c
  1163                           
  1164                           ;Keypad_Security_Lock.c: 330:   }
  1165  000A70  EF7D  F005         	goto	l210
  1166  000A74                     l3123:
  1167  000A74  FFFF               	dw	65535	; assembler added errata NOP
  1168  000A76  0445               	decf	_count^0,w,c
  1169  000A78  1046               	iorwf	(_count+1)^0,w,c
  1170  000A7A  A4D8               	btfss	status,2,c
  1171  000A7C  EF42  F005         	goto	u3251
  1172  000A80  EF45  F005         	goto	u3250
  1173  000A84                     u3251:
  1174  000A84  FFFF               	dw	65535	; assembler added errata NOP
  1175  000A86  EF54  F005         	goto	l208
  1176  000A8A                     u3250:
  1177  000A8A  FFFF               	dw	65535	; assembler added errata NOP
  1178  000A8C                     
  1179                           ;Keypad_Security_Lock.c: 332:    PORTAbits.RA1=1;
  1180  000A8C  8280               	bsf	128,1,c	;volatile
  1181  000A8E                     
  1182                           ;Keypad_Security_Lock.c: 333:          lcdcmd(0x80);
  1183  000A8E  0E80               	movlw	128
  1184  000A90  EC41  F00F         	call	_lcdcmd
  1185  000A94                     
  1186                           ;Keypad_Security_Lock.c: 334:          lcd_string("ACCESS DANIED",13);
  1187  000A94  0E8D               	movlw	low STR_5
  1188  000A96  6E20               	movwf	lcd_string@str^0,c
  1189  000A98  0E06               	movlw	high STR_5
  1190  000A9A  6E21               	movwf	(lcd_string@str+1)^0,c
  1191  000A9C  0E0D               	movlw	13
  1192  000A9E  6E22               	movwf	lcd_string@num^0,c
  1193  000AA0  ECA1  F00E         	call	_lcd_string	;wreg free
  1194  000AA4  EF2F  F005         	goto	l3119
  1195  000AA8                     l208:
  1196  000AA8  FFFF               	dw	65535	; assembler added errata NOP
  1197                           
  1198                           ;Keypad_Security_Lock.c: 339:    PORTAbits.RA2=1;
  1199  000AAA  8480               	bsf	128,2,c	;volatile
  1200  000AAC                     
  1201                           ;Keypad_Security_Lock.c: 340:          lcdcmd(0x80);
  1202  000AAC  0E80               	movlw	128
  1203  000AAE  EC41  F00F         	call	_lcdcmd
  1204  000AB2                     
  1205                           ;Keypad_Security_Lock.c: 341:          lcd_string("ACCESS DANIED",13);
  1206  000AB2  0E8D               	movlw	low STR_5
  1207  000AB4  6E20               	movwf	lcd_string@str^0,c
  1208  000AB6  0E06               	movlw	high STR_5
  1209  000AB8  6E21               	movwf	(lcd_string@str+1)^0,c
  1210  000ABA  0E0D               	movlw	13
  1211  000ABC  6E22               	movwf	lcd_string@num^0,c
  1212  000ABE  ECA1  F00E         	call	_lcd_string	;wreg free
  1213  000AC2                     
  1214                           ;Keypad_Security_Lock.c: 342:          delay(500);
  1215  000AC2  0E01               	movlw	1
  1216  000AC4  6E19               	movwf	(delay@ms+1)^0,c
  1217  000AC6  0EF4               	movlw	244
  1218  000AC8  6E18               	movwf	delay@ms^0,c
  1219  000ACA  EC0A  F00E         	call	_delay	;wreg free
  1220  000ACE                     
  1221                           ;Keypad_Security_Lock.c: 343:          lcdcmd(0xC0);
  1222  000ACE  0EC0               	movlw	192
  1223  000AD0  EC41  F00F         	call	_lcdcmd
  1224  000AD4                     
  1225                           ;Keypad_Security_Lock.c: 344:          lcd_string("PLEASE RESET PWD",16);
  1226  000AD4  0E3E               	movlw	low STR_8
  1227  000AD6  6E20               	movwf	lcd_string@str^0,c
  1228  000AD8  0E06               	movlw	high STR_8
  1229  000ADA  6E21               	movwf	(lcd_string@str+1)^0,c
  1230  000ADC  0E10               	movlw	16
  1231  000ADE  6E22               	movwf	lcd_string@num^0,c
  1232  000AE0  ECA1  F00E         	call	_lcd_string	;wreg free
  1233                           
  1234                           ;Keypad_Security_Lock.c: 345:          delay(500);
  1235  000AE4  0E01               	movlw	1
  1236  000AE6  6E19               	movwf	(delay@ms+1)^0,c
  1237  000AE8  0EF4               	movlw	244
  1238  000AEA  6E18               	movwf	delay@ms^0,c
  1239  000AEC  EC0A  F00E         	call	_delay	;wreg free
  1240                           
  1241                           ;Keypad_Security_Lock.c: 346:             lcdcmd(0x01);
  1242  000AF0  0E01               	movlw	1
  1243  000AF2  EC41  F00F         	call	_lcdcmd
  1244  000AF6                     
  1245                           ;Keypad_Security_Lock.c: 347:          master_pass_fun();
  1246  000AF6  EC80  F005         	call	_master_pass_fun	;wreg free
  1247  000AFA                     l210:
  1248  000AFA  FFFF               	dw	65535	; assembler added errata NOP
  1249  000AFC  0012               	return		;funcret
  1250  000AFE  FFFF               	dw	65535	; errata NOP
  1251  000B00                     __end_of_check_pass:
  1252                           	opt callstack 0
  1253                           
  1254 ;; *************** function _read_pass *****************
  1255 ;; Defined at:
  1256 ;;		line 528 in file "Keypad_Security_Lock.c"
  1257 ;; Parameters:    Size  Location     Type
  1258 ;;		None
  1259 ;; Auto vars:     Size  Location     Type
  1260 ;;		None
  1261 ;; Return value:  Size  Location     Type
  1262 ;;                  1    wreg      void 
  1263 ;; Registers used:
  1264 ;;		wreg, status,2, cstack
  1265 ;; Tracked objects:
  1266 ;;		On entry : 0/0
  1267 ;;		On exit  : 0/0
  1268 ;;		Unchanged: 0/0
  1269 ;; Data sizes:     COMRAM   BANK0   BANK1   BANK2   BANK3   BANK4   BANK5
  1270 ;;      Params:         0       0       0       0       0       0       0
  1271 ;;      Locals:         0       0       0       0       0       0       0
  1272 ;;      Temps:          0       0       0       0       0       0       0
  1273 ;;      Totals:         0       0       0       0       0       0       0
  1274 ;;Total ram usage:        0 bytes
  1275 ;; Hardware stack levels used:    1
  1276 ;; Hardware stack levels required when called:    7
  1277 ;; This function calls:
  1278 ;;		_EE_READ
  1279 ;; This function is called by:
  1280 ;;		_check_pass
  1281 ;; This function uses a non-reentrant model
  1282 ;;
  1283                           
  1284                           	psect	text3
  1285  001CE8                     __ptext3:
  1286                           	opt callstack 0
  1287  001CE8                     _read_pass:
  1288                           	opt callstack 0
  1289  001CE8  FFFF               	dw	65535	; assembler added errata NOP
  1290  001CEA                     
  1291                           ;Keypad_Security_Lock.c: 530:     EECON1bits.RD=1;
  1292  001CEA  80A6               	bsf	166,0,c	;volsfr
  1293  001CEC                     
  1294                           ;Keypad_Security_Lock.c: 531:     EEADR =0x0;
  1295  001CEC  0E00               	movlw	0
  1296  001CEE  6EA9               	movwf	169,c	;volatile
  1297  001CF0                     
  1298                           ;Keypad_Security_Lock.c: 532:     password[0]=EE_READ();
  1299  001CF0  EC9F  F00F         	call	_EE_READ	;wreg free
  1300  001CF4  C018  F027         	movff	?_EE_READ,_password
  1301  001CF8  C019  F028         	movff	?_EE_READ+1,_password+1
  1302  001CFC                     
  1303                           ;Keypad_Security_Lock.c: 533:     EEADR =0x1;
  1304  001CFC  0E01               	movlw	1
  1305  001CFE  6EA9               	movwf	169,c	;volatile
  1306                           
  1307                           ;Keypad_Security_Lock.c: 534:     password[1]=EE_READ();
  1308  001D00  EC9F  F00F         	call	_EE_READ	;wreg free
  1309  001D04  C018  F029         	movff	?_EE_READ,_password+2
  1310  001D08  C019  F02A         	movff	?_EE_READ+1,_password+3
  1311  001D0C                     
  1312                           ;Keypad_Security_Lock.c: 535:     EEADR =0x2;
  1313  001D0C  0E02               	movlw	2
  1314  001D0E  6EA9               	movwf	169,c	;volatile
  1315  001D10                     
  1316                           ;Keypad_Security_Lock.c: 536:     password[2]=EE_READ();
  1317  001D10  EC9F  F00F         	call	_EE_READ	;wreg free
  1318  001D14  C018  F02B         	movff	?_EE_READ,_password+4
  1319  001D18  C019  F02C         	movff	?_EE_READ+1,_password+5
  1320                           
  1321                           ;Keypad_Security_Lock.c: 537:     EEADR =0x3;
  1322  001D1C  0E03               	movlw	3
  1323  001D1E  6EA9               	movwf	169,c	;volatile
  1324  001D20                     
  1325                           ;Keypad_Security_Lock.c: 538:     password[3]=EE_READ();
  1326  001D20  EC9F  F00F         	call	_EE_READ	;wreg free
  1327  001D24  C018  F02D         	movff	?_EE_READ,_password+6
  1328  001D28  C019  F02E         	movff	?_EE_READ+1,_password+7
  1329  001D2C                     
  1330                           ;Keypad_Security_Lock.c: 539:     EEADR =0x4;
  1331  001D2C  0E04               	movlw	4
  1332  001D2E  6EA9               	movwf	169,c	;volatile
  1333                           
  1334                           ;Keypad_Security_Lock.c: 540:     password[4]=EE_READ();
  1335  001D30  EC9F  F00F         	call	_EE_READ	;wreg free
  1336  001D34  C018  F02F         	movff	?_EE_READ,_password+8
  1337  001D38  C019  F030         	movff	?_EE_READ+1,_password+9
  1338  001D3C                     
  1339                           ;Keypad_Security_Lock.c: 541:     EECON1bits.RD=0;
  1340  001D3C  90A6               	bcf	166,0,c	;volsfr
  1341  001D3E  0012               	return		;funcret
  1342  001D40  FFFF               	dw	65535	; errata NOP
  1343  001D42                     __end_of_read_pass:
  1344                           	opt callstack 0
  1345                           
  1346 ;; *************** function _EE_READ *****************
  1347 ;; Defined at:
  1348 ;;		line 219 in file "Keypad_Security_Lock.c"
  1349 ;; Parameters:    Size  Location     Type
  1350 ;;		None
  1351 ;; Auto vars:     Size  Location     Type
  1352 ;;		None
  1353 ;; Return value:  Size  Location     Type
  1354 ;;                  2   23[COMRAM] unsigned int 
  1355 ;; Registers used:
  1356 ;;		None
  1357 ;; Tracked objects:
  1358 ;;		On entry : 0/0
  1359 ;;		On exit  : 0/0
  1360 ;;		Unchanged: 0/0
  1361 ;; Data sizes:     COMRAM   BANK0   BANK1   BANK2   BANK3   BANK4   BANK5
  1362 ;;      Params:         2       0       0       0       0       0       0
  1363 ;;      Locals:         0       0       0       0       0       0       0
  1364 ;;      Temps:          0       0       0       0       0       0       0
  1365 ;;      Totals:         2       0       0       0       0       0       0
  1366 ;;Total ram usage:        2 bytes
  1367 ;; Hardware stack levels used:    1
  1368 ;; Hardware stack levels required when called:    6
  1369 ;; This function calls:
  1370 ;;		Nothing
  1371 ;; This function is called by:
  1372 ;;		_read_pass
  1373 ;; This function uses a non-reentrant model
  1374 ;;
  1375                           
  1376                           	psect	text4
  1377  001F3E                     __ptext4:
  1378                           	opt callstack 0
  1379  001F3E                     _EE_READ:
  1380                           	opt callstack 0
  1381  001F3E  FFFF               	dw	65535	; assembler added errata NOP
  1382  001F40                     
  1383                           ;Keypad_Security_Lock.c: 220:     EECON1bits.EEPGD=0;
  1384  001F40  9EA6               	bcf	166,7,c	;volsfr
  1385                           
  1386                           ;Keypad_Security_Lock.c: 221:     EECON1bits.CFGS=0;
  1387  001F42  9CA6               	bcf	166,6,c	;volsfr
  1388                           
  1389                           ;Keypad_Security_Lock.c: 222:     EECON1bits.RD=1;
  1390  001F44  80A6               	bsf	166,0,c	;volsfr
  1391                           
  1392                           ;Keypad_Security_Lock.c: 223:     return(EEDATA);
  1393  001F46  CFA8 F018          	movff	4008,?_EE_READ	;volatile
  1394  001F4A  6A19               	clrf	(?_EE_READ+1)^0,c
  1395  001F4C  0012               	return		;funcret
  1396  001F4E  FFFF               	dw	65535	; errata NOP
  1397  001F50                     __end_of_EE_READ:
  1398                           	opt callstack 0
  1399                           
  1400 ;; *************** function _master_pass_fun *****************
  1401 ;; Defined at:
  1402 ;;		line 355 in file "Keypad_Security_Lock.c"
  1403 ;; Parameters:    Size  Location     Type
  1404 ;;		None
  1405 ;; Auto vars:     Size  Location     Type
  1406 ;;  temp_1          2    2[BANK0 ] int 
  1407 ;; Return value:  Size  Location     Type
  1408 ;;                  1    wreg      void 
  1409 ;; Registers used:
  1410 ;;		wreg, status,2, status,0, tblptrl, tblptrh, tblptru, cstack
  1411 ;; Tracked objects:
  1412 ;;		On entry : 0/0
  1413 ;;		On exit  : 0/0
  1414 ;;		Unchanged: 0/0
  1415 ;; Data sizes:     COMRAM   BANK0   BANK1   BANK2   BANK3   BANK4   BANK5
  1416 ;;      Params:         0       0       0       0       0       0       0
  1417 ;;      Locals:         0       2       0       0       0       0       0
  1418 ;;      Temps:          0       0       0       0       0       0       0
  1419 ;;      Totals:         0       2       0       0       0       0       0
  1420 ;;Total ram usage:        2 bytes
  1421 ;; Hardware stack levels used:    1
  1422 ;; Hardware stack levels required when called:   10
  1423 ;; This function calls:
  1424 ;;		_change_pass
  1425 ;;		_delay
  1426 ;;		_keypad
  1427 ;;		_lcd_string
  1428 ;;		_lcdcmd
  1429 ;;		_lcddata
  1430 ;; This function is called by:
  1431 ;;		_check_pass
  1432 ;; This function uses a non-reentrant model
  1433 ;;
  1434                           
  1435                           	psect	text5
  1436  000B00                     __ptext5:
  1437                           	opt callstack 0
  1438  000B00                     _master_pass_fun:
  1439                           	opt callstack 0
  1440  000B00  FFFF               	dw	65535	; assembler added errata NOP
  1441  000B02                     
  1442                           ;Keypad_Security_Lock.c: 357:     lcdcmd(0x80);
  1443  000B02  0E80               	movlw	128
  1444  000B04  EC41  F00F         	call	_lcdcmd
  1445  000B08                     
  1446                           ;Keypad_Security_Lock.c: 358:     lcd_string("ENTER MASTER PWD",16);
  1447  000B08  0E2D               	movlw	low STR_9
  1448  000B0A  6E20               	movwf	lcd_string@str^0,c
  1449  000B0C  0E06               	movlw	high STR_9
  1450  000B0E  6E21               	movwf	(lcd_string@str+1)^0,c
  1451  000B10  0E10               	movlw	16
  1452  000B12  6E22               	movwf	lcd_string@num^0,c
  1453  000B14  ECA1  F00E         	call	_lcd_string	;wreg free
  1454  000B18                     
  1455                           ;Keypad_Security_Lock.c: 359:     lcdcmd(0xC0);
  1456  000B18  0EC0               	movlw	192
  1457  000B1A  EC41  F00F         	call	_lcdcmd
  1458  000B1E                     
  1459                           ;Keypad_Security_Lock.c: 364:     int temp_1=keypad();
  1460  000B1E  EC8A  F00B         	call	_keypad	;wreg free
  1461  000B22  C018  F062         	movff	?_keypad,master_pass_fun@temp_1
  1462  000B26  C019  F063         	movff	?_keypad+1,master_pass_fun@temp_1+1
  1463  000B2A                     l2909:
  1464  000B2A  FFFF               	dw	65535	; assembler added errata NOP
  1465  000B2C  EC8A  F00B         	call	_keypad	;wreg free
  1466  000B30  0100               	movlb	0	; () banked
  1467  000B32  5162               	movf	master_pass_fun@temp_1& (0+255),w,b
  1468  000B34  1818               	xorwf	?_keypad^0,w,c
  1469  000B36  E10A               	bnz	u2910
  1470  000B38  5163               	movf	(master_pass_fun@temp_1+1)& (0+255),w,b
  1471  000B3A  1819               	xorwf	(?_keypad+1)^0,w,c
  1472  000B3C  B4D8               	btfsc	status,2,c
  1473  000B3E  EFA3  F005         	goto	u2911
  1474  000B42  EFA6  F005         	goto	u2910
  1475  000B46                     u2911:
  1476  000B46  FFFF               	dw	65535	; assembler added errata NOP
  1477  000B48  EF95  F005         	goto	l2909
  1478  000B4C                     u2910:
  1479  000B4C  FFFF               	dw	65535	; assembler added errata NOP
  1480  000B4E                     
  1481                           ; BSR set to: 0
  1482                           ;Keypad_Security_Lock.c: 369:     check_m[0]=keypad();
  1483  000B4E  EC8A  F00B         	call	_keypad	;wreg free
  1484  000B52  C018  F031         	movff	?_keypad,_check_m
  1485  000B56  C019  F032         	movff	?_keypad+1,_check_m+1
  1486  000B5A                     
  1487                           ;Keypad_Security_Lock.c: 370:     lcddata('*');
  1488  000B5A  0E2A               	movlw	42
  1489  000B5C  EC51  F00F         	call	_lcddata
  1490  000B60                     l2915:
  1491  000B60  FFFF               	dw	65535	; assembler added errata NOP
  1492  000B62  EC8A  F00B         	call	_keypad	;wreg free
  1493  000B66  5031               	movf	_check_m^0,w,c
  1494  000B68  1818               	xorwf	?_keypad^0,w,c
  1495  000B6A  E10A               	bnz	u2920
  1496  000B6C  5032               	movf	(_check_m+1)^0,w,c
  1497  000B6E  1819               	xorwf	(?_keypad+1)^0,w,c
  1498  000B70  B4D8               	btfsc	status,2,c
  1499  000B72  EFBD  F005         	goto	u2921
  1500  000B76  EFC0  F005         	goto	u2920
  1501  000B7A                     u2921:
  1502  000B7A  FFFF               	dw	65535	; assembler added errata NOP
  1503  000B7C  EFB0  F005         	goto	l2915
  1504  000B80                     u2920:
  1505  000B80  FFFF               	dw	65535	; assembler added errata NOP
  1506  000B82                     
  1507                           ;Keypad_Security_Lock.c: 376:     temp_1=keypad();
  1508  000B82  EC8A  F00B         	call	_keypad	;wreg free
  1509  000B86  C018  F062         	movff	?_keypad,master_pass_fun@temp_1
  1510  000B8A  C019  F063         	movff	?_keypad+1,master_pass_fun@temp_1+1
  1511  000B8E                     l2919:
  1512  000B8E  FFFF               	dw	65535	; assembler added errata NOP
  1513  000B90  EC8A  F00B         	call	_keypad	;wreg free
  1514  000B94  0100               	movlb	0	; () banked
  1515  000B96  5162               	movf	master_pass_fun@temp_1& (0+255),w,b
  1516  000B98  1818               	xorwf	?_keypad^0,w,c
  1517  000B9A  E10A               	bnz	u2930
  1518  000B9C  5163               	movf	(master_pass_fun@temp_1+1)& (0+255),w,b
  1519  000B9E  1819               	xorwf	(?_keypad+1)^0,w,c
  1520  000BA0  B4D8               	btfsc	status,2,c
  1521  000BA2  EFD5  F005         	goto	u2931
  1522  000BA6  EFD8  F005         	goto	u2930
  1523  000BAA                     u2931:
  1524  000BAA  FFFF               	dw	65535	; assembler added errata NOP
  1525  000BAC  EFC7  F005         	goto	l2919
  1526  000BB0                     u2930:
  1527  000BB0  FFFF               	dw	65535	; assembler added errata NOP
  1528  000BB2                     
  1529                           ; BSR set to: 0
  1530                           ;Keypad_Security_Lock.c: 379:     check_m[1]=keypad();
  1531  000BB2  EC8A  F00B         	call	_keypad	;wreg free
  1532  000BB6  C018  F033         	movff	?_keypad,_check_m+2
  1533  000BBA  C019  F034         	movff	?_keypad+1,_check_m+3
  1534  000BBE                     
  1535                           ;Keypad_Security_Lock.c: 380:     lcddata('*');
  1536  000BBE  0E2A               	movlw	42
  1537  000BC0  EC51  F00F         	call	_lcddata
  1538  000BC4                     l2925:
  1539  000BC4  FFFF               	dw	65535	; assembler added errata NOP
  1540  000BC6  EC8A  F00B         	call	_keypad	;wreg free
  1541  000BCA  5033               	movf	(_check_m+2)^0,w,c
  1542  000BCC  1818               	xorwf	?_keypad^0,w,c
  1543  000BCE  E10A               	bnz	u2940
  1544  000BD0  5034               	movf	(_check_m+3)^0,w,c
  1545  000BD2  1819               	xorwf	(?_keypad+1)^0,w,c
  1546  000BD4  B4D8               	btfsc	status,2,c
  1547  000BD6  EFEF  F005         	goto	u2941
  1548  000BDA  EFF2  F005         	goto	u2940
  1549  000BDE                     u2941:
  1550  000BDE  FFFF               	dw	65535	; assembler added errata NOP
  1551  000BE0  EFE2  F005         	goto	l2925
  1552  000BE4                     u2940:
  1553  000BE4  FFFF               	dw	65535	; assembler added errata NOP
  1554  000BE6                     
  1555                           ;Keypad_Security_Lock.c: 386:     temp_1=keypad();
  1556  000BE6  EC8A  F00B         	call	_keypad	;wreg free
  1557  000BEA  C018  F062         	movff	?_keypad,master_pass_fun@temp_1
  1558  000BEE  C019  F063         	movff	?_keypad+1,master_pass_fun@temp_1+1
  1559  000BF2                     l2929:
  1560  000BF2  FFFF               	dw	65535	; assembler added errata NOP
  1561  000BF4  EC8A  F00B         	call	_keypad	;wreg free
  1562  000BF8  0100               	movlb	0	; () banked
  1563  000BFA  5162               	movf	master_pass_fun@temp_1& (0+255),w,b
  1564  000BFC  1818               	xorwf	?_keypad^0,w,c
  1565  000BFE  E10A               	bnz	u2950
  1566  000C00  5163               	movf	(master_pass_fun@temp_1+1)& (0+255),w,b
  1567  000C02  1819               	xorwf	(?_keypad+1)^0,w,c
  1568  000C04  B4D8               	btfsc	status,2,c
  1569  000C06  EF07  F006         	goto	u2951
  1570  000C0A  EF0A  F006         	goto	u2950
  1571  000C0E                     u2951:
  1572  000C0E  FFFF               	dw	65535	; assembler added errata NOP
  1573  000C10  EFF9  F005         	goto	l2929
  1574  000C14                     u2950:
  1575  000C14  FFFF               	dw	65535	; assembler added errata NOP
  1576  000C16                     
  1577                           ; BSR set to: 0
  1578                           ;Keypad_Security_Lock.c: 389:     check_m[2]=keypad();
  1579  000C16  EC8A  F00B         	call	_keypad	;wreg free
  1580  000C1A  C018  F035         	movff	?_keypad,_check_m+4
  1581  000C1E  C019  F036         	movff	?_keypad+1,_check_m+5
  1582  000C22                     
  1583                           ;Keypad_Security_Lock.c: 390:     lcddata('*');
  1584  000C22  0E2A               	movlw	42
  1585  000C24  EC51  F00F         	call	_lcddata
  1586  000C28                     l2935:
  1587  000C28  FFFF               	dw	65535	; assembler added errata NOP
  1588  000C2A  EC8A  F00B         	call	_keypad	;wreg free
  1589  000C2E  5035               	movf	(_check_m+4)^0,w,c
  1590  000C30  1818               	xorwf	?_keypad^0,w,c
  1591  000C32  E10A               	bnz	u2960
  1592  000C34  5036               	movf	(_check_m+5)^0,w,c
  1593  000C36  1819               	xorwf	(?_keypad+1)^0,w,c
  1594  000C38  B4D8               	btfsc	status,2,c
  1595  000C3A  EF21  F006         	goto	u2961
  1596  000C3E  EF24  F006         	goto	u2960
  1597  000C42                     u2961:
  1598  000C42  FFFF               	dw	65535	; assembler added errata NOP
  1599  000C44  EF14  F006         	goto	l2935
  1600  000C48                     u2960:
  1601  000C48  FFFF               	dw	65535	; assembler added errata NOP
  1602  000C4A                     
  1603                           ;Keypad_Security_Lock.c: 396:     temp_1=keypad();
  1604  000C4A  EC8A  F00B         	call	_keypad	;wreg free
  1605  000C4E  C018  F062         	movff	?_keypad,master_pass_fun@temp_1
  1606  000C52  C019  F063         	movff	?_keypad+1,master_pass_fun@temp_1+1
  1607  000C56                     l2939:
  1608  000C56  FFFF               	dw	65535	; assembler added errata NOP
  1609  000C58  EC8A  F00B         	call	_keypad	;wreg free
  1610  000C5C  0100               	movlb	0	; () banked
  1611  000C5E  5162               	movf	master_pass_fun@temp_1& (0+255),w,b
  1612  000C60  1818               	xorwf	?_keypad^0,w,c
  1613  000C62  E10A               	bnz	u2970
  1614  000C64  5163               	movf	(master_pass_fun@temp_1+1)& (0+255),w,b
  1615  000C66  1819               	xorwf	(?_keypad+1)^0,w,c
  1616  000C68  B4D8               	btfsc	status,2,c
  1617  000C6A  EF39  F006         	goto	u2971
  1618  000C6E  EF3C  F006         	goto	u2970
  1619  000C72                     u2971:
  1620  000C72  FFFF               	dw	65535	; assembler added errata NOP
  1621  000C74  EF2B  F006         	goto	l2939
  1622  000C78                     u2970:
  1623  000C78  FFFF               	dw	65535	; assembler added errata NOP
  1624  000C7A                     
  1625                           ; BSR set to: 0
  1626                           ;Keypad_Security_Lock.c: 399:     check_m[3]=keypad();
  1627  000C7A  EC8A  F00B         	call	_keypad	;wreg free
  1628  000C7E  C018  F037         	movff	?_keypad,_check_m+6
  1629  000C82  C019  F038         	movff	?_keypad+1,_check_m+7
  1630  000C86                     
  1631                           ;Keypad_Security_Lock.c: 400:     lcddata('*');
  1632  000C86  0E2A               	movlw	42
  1633  000C88  EC51  F00F         	call	_lcddata
  1634  000C8C                     l2945:
  1635  000C8C  FFFF               	dw	65535	; assembler added errata NOP
  1636  000C8E  EC8A  F00B         	call	_keypad	;wreg free
  1637  000C92  5037               	movf	(_check_m+6)^0,w,c
  1638  000C94  1818               	xorwf	?_keypad^0,w,c
  1639  000C96  E10A               	bnz	u2980
  1640  000C98  5038               	movf	(_check_m+7)^0,w,c
  1641  000C9A  1819               	xorwf	(?_keypad+1)^0,w,c
  1642  000C9C  B4D8               	btfsc	status,2,c
  1643  000C9E  EF53  F006         	goto	u2981
  1644  000CA2  EF56  F006         	goto	u2980
  1645  000CA6                     u2981:
  1646  000CA6  FFFF               	dw	65535	; assembler added errata NOP
  1647  000CA8  EF46  F006         	goto	l2945
  1648  000CAC                     u2980:
  1649  000CAC  FFFF               	dw	65535	; assembler added errata NOP
  1650  000CAE                     
  1651                           ;Keypad_Security_Lock.c: 406:     temp_1=keypad();
  1652  000CAE  EC8A  F00B         	call	_keypad	;wreg free
  1653  000CB2  C018  F062         	movff	?_keypad,master_pass_fun@temp_1
  1654  000CB6  C019  F063         	movff	?_keypad+1,master_pass_fun@temp_1+1
  1655  000CBA                     l2949:
  1656  000CBA  FFFF               	dw	65535	; assembler added errata NOP
  1657  000CBC  EC8A  F00B         	call	_keypad	;wreg free
  1658  000CC0  0100               	movlb	0	; () banked
  1659  000CC2  5162               	movf	master_pass_fun@temp_1& (0+255),w,b
  1660  000CC4  1818               	xorwf	?_keypad^0,w,c
  1661  000CC6  E10A               	bnz	u2990
  1662  000CC8  5163               	movf	(master_pass_fun@temp_1+1)& (0+255),w,b
  1663  000CCA  1819               	xorwf	(?_keypad+1)^0,w,c
  1664  000CCC  B4D8               	btfsc	status,2,c
  1665  000CCE  EF6B  F006         	goto	u2991
  1666  000CD2  EF6E  F006         	goto	u2990
  1667  000CD6                     u2991:
  1668  000CD6  FFFF               	dw	65535	; assembler added errata NOP
  1669  000CD8  EF5D  F006         	goto	l2949
  1670  000CDC                     u2990:
  1671  000CDC  FFFF               	dw	65535	; assembler added errata NOP
  1672  000CDE                     
  1673                           ; BSR set to: 0
  1674                           ;Keypad_Security_Lock.c: 409:     check_m[4]=keypad();
  1675  000CDE  EC8A  F00B         	call	_keypad	;wreg free
  1676  000CE2  C018  F039         	movff	?_keypad,_check_m+8
  1677  000CE6  C019  F03A         	movff	?_keypad+1,_check_m+9
  1678  000CEA                     
  1679                           ;Keypad_Security_Lock.c: 410:     lcddata('*');
  1680  000CEA  0E2A               	movlw	42
  1681  000CEC  EC51  F00F         	call	_lcddata
  1682  000CF0                     l2955:
  1683  000CF0  FFFF               	dw	65535	; assembler added errata NOP
  1684  000CF2  EC8A  F00B         	call	_keypad	;wreg free
  1685  000CF6  5039               	movf	(_check_m+8)^0,w,c
  1686  000CF8  1818               	xorwf	?_keypad^0,w,c
  1687  000CFA  E10A               	bnz	u3000
  1688  000CFC  503A               	movf	(_check_m+9)^0,w,c
  1689  000CFE  1819               	xorwf	(?_keypad+1)^0,w,c
  1690  000D00  B4D8               	btfsc	status,2,c
  1691  000D02  EF85  F006         	goto	u3001
  1692  000D06  EF88  F006         	goto	u3000
  1693  000D0A                     u3001:
  1694  000D0A  FFFF               	dw	65535	; assembler added errata NOP
  1695  000D0C  EF78  F006         	goto	l2955
  1696  000D10                     u3000:
  1697  000D10  FFFF               	dw	65535	; assembler added errata NOP
  1698  000D12                     
  1699                           ;Keypad_Security_Lock.c: 413:     count=0;
  1700  000D12  0E00               	movlw	0
  1701  000D14  6E46               	movwf	(_count+1)^0,c
  1702  000D16  0E00               	movlw	0
  1703  000D18  6E45               	movwf	_count^0,c
  1704  000D1A                     
  1705                           ;Keypad_Security_Lock.c: 414:     if(check_m[0]==master_pass[0] && check_m[1]==master_pa
      +                          ss[1] && check_m[2]==master_pass[2] && check_m[3]==master_pass[3] && check_m[4]==master_
      +                          pass[4]){
  1706  000D1A  0E01               	movlw	low _master_pass
  1707  000D1C  6EF6               	movwf	tblptrl,c
  1708  000D1E                     	if	0	;There is only one active tblptr byte
  1709  000D1E                     	endif
  1710  000D1E                     	if	0	;There are less than 3 active tblptr bytes
  1711  000D1E                     	endif
  1712  000D1E  0009               	tblrd		*+
  1713  000D20  FFFF               	dw	65535	; errata NOP
  1714  000D22  50F5               	movf	tablat,w,c
  1715  000D24  1831               	xorwf	_check_m^0,w,c
  1716  000D26  E109               	bnz	u3011
  1717  000D28  0009               	tblrd		*+
  1718  000D2A  FFFF               	dw	65535	; errata NOP
  1719  000D2C  50F5               	movf	tablat,w,c
  1720  000D2E  1832               	xorwf	(_check_m+1)^0,w,c
  1721  000D30  A4D8               	btfss	status,2,c
  1722  000D32  EF9D  F006         	goto	u3011
  1723  000D36  EFA0  F006         	goto	u3010
  1724  000D3A                     u3011:
  1725  000D3A  FFFF               	dw	65535	; assembler added errata NOP
  1726  000D3C  EF02  F007         	goto	l2977
  1727  000D40                     u3010:
  1728  000D40  FFFF               	dw	65535	; assembler added errata NOP
  1729  000D42  0E03               	movlw	low (_master_pass+2)
  1730  000D44  6EF6               	movwf	tblptrl,c
  1731  000D46  0E06               	movlw	high (_master_pass+2)
  1732  000D48  6EF7               	movwf	tblptrh,c
  1733  000D4A                     	if	0	;tblptru may be non-zero
  1734  000D4A                     	endif
  1735  000D4A                     	if	0	;tblptru may be non-zero
  1736  000D4A                     	endif
  1737  000D4A  0009               	tblrd		*+
  1738  000D4C  FFFF               	dw	65535	; errata NOP
  1739  000D4E  50F5               	movf	tablat,w,c
  1740  000D50  1833               	xorwf	(_check_m+2)^0,w,c
  1741  000D52  E109               	bnz	u3021
  1742  000D54  0009               	tblrd		*+
  1743  000D56  FFFF               	dw	65535	; errata NOP
  1744  000D58  50F5               	movf	tablat,w,c
  1745  000D5A  1834               	xorwf	(_check_m+3)^0,w,c
  1746  000D5C  A4D8               	btfss	status,2,c
  1747  000D5E  EFB3  F006         	goto	u3021
  1748  000D62  EFB6  F006         	goto	u3020
  1749  000D66                     u3021:
  1750  000D66  FFFF               	dw	65535	; assembler added errata NOP
  1751  000D68  EF02  F007         	goto	l2977
  1752  000D6C                     u3020:
  1753  000D6C  FFFF               	dw	65535	; assembler added errata NOP
  1754  000D6E  0E05               	movlw	low (_master_pass+4)
  1755  000D70  6EF6               	movwf	tblptrl,c
  1756  000D72  0E06               	movlw	high (_master_pass+4)
  1757  000D74  6EF7               	movwf	tblptrh,c
  1758  000D76                     	if	0	;tblptru may be non-zero
  1759  000D76                     	endif
  1760  000D76                     	if	0	;tblptru may be non-zero
  1761  000D76                     	endif
  1762  000D76  0009               	tblrd		*+
  1763  000D78  FFFF               	dw	65535	; errata NOP
  1764  000D7A  50F5               	movf	tablat,w,c
  1765  000D7C  1835               	xorwf	(_check_m+4)^0,w,c
  1766  000D7E  E109               	bnz	u3031
  1767  000D80  0009               	tblrd		*+
  1768  000D82  FFFF               	dw	65535	; errata NOP
  1769  000D84  50F5               	movf	tablat,w,c
  1770  000D86  1836               	xorwf	(_check_m+5)^0,w,c
  1771  000D88  A4D8               	btfss	status,2,c
  1772  000D8A  EFC9  F006         	goto	u3031
  1773  000D8E  EFCC  F006         	goto	u3030
  1774  000D92                     u3031:
  1775  000D92  FFFF               	dw	65535	; assembler added errata NOP
  1776  000D94  EF02  F007         	goto	l2977
  1777  000D98                     u3030:
  1778  000D98  FFFF               	dw	65535	; assembler added errata NOP
  1779  000D9A  0E07               	movlw	low (_master_pass+6)
  1780  000D9C  6EF6               	movwf	tblptrl,c
  1781  000D9E  0E06               	movlw	high (_master_pass+6)
  1782  000DA0  6EF7               	movwf	tblptrh,c
  1783  000DA2                     	if	0	;tblptru may be non-zero
  1784  000DA2                     	endif
  1785  000DA2                     	if	0	;tblptru may be non-zero
  1786  000DA2                     	endif
  1787  000DA2  0009               	tblrd		*+
  1788  000DA4  FFFF               	dw	65535	; errata NOP
  1789  000DA6  50F5               	movf	tablat,w,c
  1790  000DA8  1837               	xorwf	(_check_m+6)^0,w,c
  1791  000DAA  E109               	bnz	u3041
  1792  000DAC  0009               	tblrd		*+
  1793  000DAE  FFFF               	dw	65535	; errata NOP
  1794  000DB0  50F5               	movf	tablat,w,c
  1795  000DB2  1838               	xorwf	(_check_m+7)^0,w,c
  1796  000DB4  A4D8               	btfss	status,2,c
  1797  000DB6  EFDF  F006         	goto	u3041
  1798  000DBA  EFE2  F006         	goto	u3040
  1799  000DBE                     u3041:
  1800  000DBE  FFFF               	dw	65535	; assembler added errata NOP
  1801  000DC0  EF02  F007         	goto	l2977
  1802  000DC4                     u3040:
  1803  000DC4  FFFF               	dw	65535	; assembler added errata NOP
  1804  000DC6  0E09               	movlw	low (_master_pass+8)
  1805  000DC8  6EF6               	movwf	tblptrl,c
  1806  000DCA  0E06               	movlw	high (_master_pass+8)
  1807  000DCC  6EF7               	movwf	tblptrh,c
  1808  000DCE                     	if	0	;tblptru may be non-zero
  1809  000DCE                     	endif
  1810  000DCE                     	if	0	;tblptru may be non-zero
  1811  000DCE                     	endif
  1812  000DCE  0009               	tblrd		*+
  1813  000DD0  FFFF               	dw	65535	; errata NOP
  1814  000DD2  50F5               	movf	tablat,w,c
  1815  000DD4  1839               	xorwf	(_check_m+8)^0,w,c
  1816  000DD6  E109               	bnz	u3051
  1817  000DD8  0009               	tblrd		*+
  1818  000DDA  FFFF               	dw	65535	; errata NOP
  1819  000DDC  50F5               	movf	tablat,w,c
  1820  000DDE  183A               	xorwf	(_check_m+9)^0,w,c
  1821  000DE0  A4D8               	btfss	status,2,c
  1822  000DE2  EFF5  F006         	goto	u3051
  1823  000DE6  EFF8  F006         	goto	u3050
  1824  000DEA                     u3051:
  1825  000DEA  FFFF               	dw	65535	; assembler added errata NOP
  1826  000DEC  EF02  F007         	goto	l2977
  1827  000DF0                     u3050:
  1828  000DF0  FFFF               	dw	65535	; assembler added errata NOP
  1829  000DF2                     
  1830                           ;Keypad_Security_Lock.c: 415:         PORTAbits.RA1=1;
  1831  000DF2  8280               	bsf	128,1,c	;volatile
  1832  000DF4                     
  1833                           ;Keypad_Security_Lock.c: 416:         lcdcmd(0x01);
  1834  000DF4  0E01               	movlw	1
  1835  000DF6  EC41  F00F         	call	_lcdcmd
  1836  000DFA                     
  1837                           ;Keypad_Security_Lock.c: 417:         change_pass();
  1838  000DFA  ECDB  F008         	call	_change_pass	;wreg free
  1839  000DFE                     
  1840                           ;Keypad_Security_Lock.c: 419:         PORTAbits.RA1=0;
  1841  000DFE  9280               	bcf	128,1,c	;volatile
  1842                           
  1843                           ;Keypad_Security_Lock.c: 420:     }
  1844  000E00  EF2D  F007         	goto	l245
  1845  000E04                     l2977:
  1846  000E04  FFFF               	dw	65535	; assembler added errata NOP
  1847                           
  1848                           ;Keypad_Security_Lock.c: 422:         lcdcmd(0x01);
  1849  000E06  0E01               	movlw	1
  1850  000E08  EC41  F00F         	call	_lcdcmd
  1851  000E0C                     
  1852                           ;Keypad_Security_Lock.c: 423:         PORTAbits.RA2=1;
  1853  000E0C  8480               	bsf	128,2,c	;volatile
  1854                           
  1855                           ;Keypad_Security_Lock.c: 424:         lcdcmd(0x80);
  1856  000E0E  0E80               	movlw	128
  1857  000E10  EC41  F00F         	call	_lcdcmd
  1858  000E14                     
  1859                           ;Keypad_Security_Lock.c: 425:         lcd_string("WRONG MASTER PWD",16);
  1860  000E14  0E1C               	movlw	low STR_10
  1861  000E16  6E20               	movwf	lcd_string@str^0,c
  1862  000E18  0E06               	movlw	high STR_10
  1863  000E1A  6E21               	movwf	(lcd_string@str+1)^0,c
  1864  000E1C  0E10               	movlw	16
  1865  000E1E  6E22               	movwf	lcd_string@num^0,c
  1866  000E20  ECA1  F00E         	call	_lcd_string	;wreg free
  1867  000E24                     
  1868                           ;Keypad_Security_Lock.c: 426:         delay(500);
  1869  000E24  0E01               	movlw	1
  1870  000E26  6E19               	movwf	(delay@ms+1)^0,c
  1871  000E28  0EF4               	movlw	244
  1872  000E2A  6E18               	movwf	delay@ms^0,c
  1873  000E2C  EC0A  F00E         	call	_delay	;wreg free
  1874  000E30                     
  1875                           ;Keypad_Security_Lock.c: 427:         lcdcmd(0xC0);
  1876  000E30  0EC0               	movlw	192
  1877  000E32  EC41  F00F         	call	_lcdcmd
  1878  000E36                     
  1879                           ;Keypad_Security_Lock.c: 428:         lcd_string("TRY AGAIN",9);
  1880  000E36  0EA8               	movlw	low STR_11
  1881  000E38  6E20               	movwf	lcd_string@str^0,c
  1882  000E3A  0E06               	movlw	high STR_11
  1883  000E3C  6E21               	movwf	(lcd_string@str+1)^0,c
  1884  000E3E  0E09               	movlw	9
  1885  000E40  6E22               	movwf	lcd_string@num^0,c
  1886  000E42  ECA1  F00E         	call	_lcd_string	;wreg free
  1887                           
  1888                           ;Keypad_Security_Lock.c: 429:         delay(500);
  1889  000E46  0E01               	movlw	1
  1890  000E48  6E19               	movwf	(delay@ms+1)^0,c
  1891  000E4A  0EF4               	movlw	244
  1892  000E4C  6E18               	movwf	delay@ms^0,c
  1893  000E4E  EC0A  F00E         	call	_delay	;wreg free
  1894                           
  1895                           ;Keypad_Security_Lock.c: 430:         lcdcmd(0x01);
  1896  000E52  0E01               	movlw	1
  1897  000E54  EC41  F00F         	call	_lcdcmd
  1898  000E58                     
  1899                           ;Keypad_Security_Lock.c: 431:         INT0IF=1;
  1900  000E58  82F2               	bsf	4082,1,c	;volatile
  1901  000E5A                     l245:
  1902  000E5A  FFFF               	dw	65535	; assembler added errata NOP
  1903  000E5C  0012               	return		;funcret
  1904  000E5E  FFFF               	dw	65535	; errata NOP
  1905  000E60                     __end_of_master_pass_fun:
  1906                           	opt callstack 0
  1907                           
  1908 ;; *************** function _change_pass *****************
  1909 ;; Defined at:
  1910 ;;		line 439 in file "Keypad_Security_Lock.c"
  1911 ;; Parameters:    Size  Location     Type
  1912 ;;		None
  1913 ;; Auto vars:     Size  Location     Type
  1914 ;;  temp_1          2    0[BANK0 ] int 
  1915 ;; Return value:  Size  Location     Type
  1916 ;;                  1    wreg      void 
  1917 ;; Registers used:
  1918 ;;		wreg, status,2, status,0, tblptrl, tblptrh, tblptru, cstack
  1919 ;; Tracked objects:
  1920 ;;		On entry : 0/0
  1921 ;;		On exit  : 0/0
  1922 ;;		Unchanged: 0/0
  1923 ;; Data sizes:     COMRAM   BANK0   BANK1   BANK2   BANK3   BANK4   BANK5
  1924 ;;      Params:         0       0       0       0       0       0       0
  1925 ;;      Locals:         0       2       0       0       0       0       0
  1926 ;;      Temps:          0       0       0       0       0       0       0
  1927 ;;      Totals:         0       2       0       0       0       0       0
  1928 ;;Total ram usage:        2 bytes
  1929 ;; Hardware stack levels used:    1
  1930 ;; Hardware stack levels required when called:    9
  1931 ;; This function calls:
  1932 ;;		_EE_WRT
  1933 ;;		_delay
  1934 ;;		_keypad
  1935 ;;		_lcd_string
  1936 ;;		_lcdcmd
  1937 ;;		_lcddata
  1938 ;; This function is called by:
  1939 ;;		_master_pass_fun
  1940 ;; This function uses a non-reentrant model
  1941 ;;
  1942                           
  1943                           	psect	text6
  1944  0011B6                     __ptext6:
  1945                           	opt callstack 0
  1946  0011B6                     _change_pass:
  1947                           	opt callstack 0
  1948  0011B6  FFFF               	dw	65535	; assembler added errata NOP
  1949  0011B8                     
  1950                           ;Keypad_Security_Lock.c: 441:     lcdcmd(0x80);
  1951  0011B8  0E80               	movlw	128
  1952  0011BA  EC41  F00F         	call	_lcdcmd
  1953  0011BE                     
  1954                           ;Keypad_Security_Lock.c: 442:     lcd_string("ENTER NEW PASS",14);
  1955  0011BE  0E7E               	movlw	low STR_12
  1956  0011C0  6E20               	movwf	lcd_string@str^0,c
  1957  0011C2  0E06               	movlw	high STR_12
  1958  0011C4  6E21               	movwf	(lcd_string@str+1)^0,c
  1959  0011C6  0E0E               	movlw	14
  1960  0011C8  6E22               	movwf	lcd_string@num^0,c
  1961  0011CA  ECA1  F00E         	call	_lcd_string	;wreg free
  1962  0011CE                     
  1963                           ;Keypad_Security_Lock.c: 443:     lcdcmd(0xC0);
  1964  0011CE  0EC0               	movlw	192
  1965  0011D0  EC41  F00F         	call	_lcdcmd
  1966  0011D4                     
  1967                           ;Keypad_Security_Lock.c: 448:     int temp_1=keypad();
  1968  0011D4  EC8A  F00B         	call	_keypad	;wreg free
  1969  0011D8  C018  F060         	movff	?_keypad,change_pass@temp_1
  1970  0011DC  C019  F061         	movff	?_keypad+1,change_pass@temp_1+1
  1971  0011E0                     l2809:
  1972  0011E0  FFFF               	dw	65535	; assembler added errata NOP
  1973  0011E2  EC8A  F00B         	call	_keypad	;wreg free
  1974  0011E6  0100               	movlb	0	; () banked
  1975  0011E8  5160               	movf	change_pass@temp_1& (0+255),w,b
  1976  0011EA  1818               	xorwf	?_keypad^0,w,c
  1977  0011EC  E10A               	bnz	u2810
  1978  0011EE  5161               	movf	(change_pass@temp_1+1)& (0+255),w,b
  1979  0011F0  1819               	xorwf	(?_keypad+1)^0,w,c
  1980  0011F2  B4D8               	btfsc	status,2,c
  1981  0011F4  EFFE  F008         	goto	u2811
  1982  0011F8  EF01  F009         	goto	u2810
  1983  0011FC                     u2811:
  1984  0011FC  FFFF               	dw	65535	; assembler added errata NOP
  1985  0011FE  EFF0  F008         	goto	l2809
  1986  001202                     u2810:
  1987  001202  FFFF               	dw	65535	; assembler added errata NOP
  1988  001204                     
  1989                           ; BSR set to: 0
  1990                           ;Keypad_Security_Lock.c: 453:     check[0]=keypad();
  1991  001204  EC8A  F00B         	call	_keypad	;wreg free
  1992  001208  C018  F03B         	movff	?_keypad,_check
  1993  00120C  C019  F03C         	movff	?_keypad+1,_check+1
  1994  001210                     
  1995                           ;Keypad_Security_Lock.c: 454:     EEADR=0x0;
  1996  001210  0E00               	movlw	0
  1997  001212  6EA9               	movwf	169,c	;volatile
  1998  001214                     
  1999                           ;Keypad_Security_Lock.c: 455:     EEDATA=check[0];
  2000  001214  C03B  FFA8         	movff	_check,4008	;volatile
  2001  001218                     
  2002                           ;Keypad_Security_Lock.c: 456:     EE_WRT();
  2003  001218  EC15  F00F         	call	_EE_WRT	;wreg free
  2004  00121C                     
  2005                           ;Keypad_Security_Lock.c: 457:     lcddata('*');
  2006  00121C  0E2A               	movlw	42
  2007  00121E  EC51  F00F         	call	_lcddata
  2008  001222                     l2821:
  2009  001222  FFFF               	dw	65535	; assembler added errata NOP
  2010  001224  EC8A  F00B         	call	_keypad	;wreg free
  2011  001228  503B               	movf	_check^0,w,c
  2012  00122A  1818               	xorwf	?_keypad^0,w,c
  2013  00122C  E10A               	bnz	u2820
  2014  00122E  503C               	movf	(_check+1)^0,w,c
  2015  001230  1819               	xorwf	(?_keypad+1)^0,w,c
  2016  001232  B4D8               	btfsc	status,2,c
  2017  001234  EF1E  F009         	goto	u2821
  2018  001238  EF21  F009         	goto	u2820
  2019  00123C                     u2821:
  2020  00123C  FFFF               	dw	65535	; assembler added errata NOP
  2021  00123E  EF11  F009         	goto	l2821
  2022  001242                     u2820:
  2023  001242  FFFF               	dw	65535	; assembler added errata NOP
  2024  001244                     
  2025                           ;Keypad_Security_Lock.c: 463:     temp_1=keypad();
  2026  001244  EC8A  F00B         	call	_keypad	;wreg free
  2027  001248  C018  F060         	movff	?_keypad,change_pass@temp_1
  2028  00124C  C019  F061         	movff	?_keypad+1,change_pass@temp_1+1
  2029  001250                     l2825:
  2030  001250  FFFF               	dw	65535	; assembler added errata NOP
  2031  001252  EC8A  F00B         	call	_keypad	;wreg free
  2032  001256  0100               	movlb	0	; () banked
  2033  001258  5160               	movf	change_pass@temp_1& (0+255),w,b
  2034  00125A  1818               	xorwf	?_keypad^0,w,c
  2035  00125C  E10A               	bnz	u2830
  2036  00125E  5161               	movf	(change_pass@temp_1+1)& (0+255),w,b
  2037  001260  1819               	xorwf	(?_keypad+1)^0,w,c
  2038  001262  B4D8               	btfsc	status,2,c
  2039  001264  EF36  F009         	goto	u2831
  2040  001268  EF39  F009         	goto	u2830
  2041  00126C                     u2831:
  2042  00126C  FFFF               	dw	65535	; assembler added errata NOP
  2043  00126E  EF28  F009         	goto	l2825
  2044  001272                     u2830:
  2045  001272  FFFF               	dw	65535	; assembler added errata NOP
  2046  001274                     
  2047                           ; BSR set to: 0
  2048                           ;Keypad_Security_Lock.c: 466:     check[1]=keypad();
  2049  001274  EC8A  F00B         	call	_keypad	;wreg free
  2050  001278  C018  F03D         	movff	?_keypad,_check+2
  2051  00127C  C019  F03E         	movff	?_keypad+1,_check+3
  2052  001280                     
  2053                           ;Keypad_Security_Lock.c: 467:     EEADR=0x1;
  2054  001280  0E01               	movlw	1
  2055  001282  6EA9               	movwf	169,c	;volatile
  2056  001284                     
  2057                           ;Keypad_Security_Lock.c: 468:     EEDATA=check[1];
  2058  001284  C03D  FFA8         	movff	_check+2,4008	;volatile
  2059  001288                     
  2060                           ;Keypad_Security_Lock.c: 469:     EE_WRT();
  2061  001288  EC15  F00F         	call	_EE_WRT	;wreg free
  2062  00128C                     
  2063                           ;Keypad_Security_Lock.c: 470:     lcddata('*');
  2064  00128C  0E2A               	movlw	42
  2065  00128E  EC51  F00F         	call	_lcddata
  2066  001292                     l2837:
  2067  001292  FFFF               	dw	65535	; assembler added errata NOP
  2068  001294  EC8A  F00B         	call	_keypad	;wreg free
  2069  001298  503D               	movf	(_check+2)^0,w,c
  2070  00129A  1818               	xorwf	?_keypad^0,w,c
  2071  00129C  E10A               	bnz	u2840
  2072  00129E  503E               	movf	(_check+3)^0,w,c
  2073  0012A0  1819               	xorwf	(?_keypad+1)^0,w,c
  2074  0012A2  B4D8               	btfsc	status,2,c
  2075  0012A4  EF56  F009         	goto	u2841
  2076  0012A8  EF59  F009         	goto	u2840
  2077  0012AC                     u2841:
  2078  0012AC  FFFF               	dw	65535	; assembler added errata NOP
  2079  0012AE  EF49  F009         	goto	l2837
  2080  0012B2                     u2840:
  2081  0012B2  FFFF               	dw	65535	; assembler added errata NOP
  2082  0012B4                     
  2083                           ;Keypad_Security_Lock.c: 476:     temp_1=keypad();
  2084  0012B4  EC8A  F00B         	call	_keypad	;wreg free
  2085  0012B8  C018  F060         	movff	?_keypad,change_pass@temp_1
  2086  0012BC  C019  F061         	movff	?_keypad+1,change_pass@temp_1+1
  2087  0012C0                     l2841:
  2088  0012C0  FFFF               	dw	65535	; assembler added errata NOP
  2089  0012C2  EC8A  F00B         	call	_keypad	;wreg free
  2090  0012C6  0100               	movlb	0	; () banked
  2091  0012C8  5160               	movf	change_pass@temp_1& (0+255),w,b
  2092  0012CA  1818               	xorwf	?_keypad^0,w,c
  2093  0012CC  E10A               	bnz	u2850
  2094  0012CE  5161               	movf	(change_pass@temp_1+1)& (0+255),w,b
  2095  0012D0  1819               	xorwf	(?_keypad+1)^0,w,c
  2096  0012D2  B4D8               	btfsc	status,2,c
  2097  0012D4  EF6E  F009         	goto	u2851
  2098  0012D8  EF71  F009         	goto	u2850
  2099  0012DC                     u2851:
  2100  0012DC  FFFF               	dw	65535	; assembler added errata NOP
  2101  0012DE  EF60  F009         	goto	l2841
  2102  0012E2                     u2850:
  2103  0012E2  FFFF               	dw	65535	; assembler added errata NOP
  2104  0012E4                     
  2105                           ; BSR set to: 0
  2106                           ;Keypad_Security_Lock.c: 479:     check[2]=keypad();
  2107  0012E4  EC8A  F00B         	call	_keypad	;wreg free
  2108  0012E8  C018  F03F         	movff	?_keypad,_check+4
  2109  0012EC  C019  F040         	movff	?_keypad+1,_check+5
  2110  0012F0                     
  2111                           ;Keypad_Security_Lock.c: 480:     EEADR=0x2;
  2112  0012F0  0E02               	movlw	2
  2113  0012F2  6EA9               	movwf	169,c	;volatile
  2114  0012F4                     
  2115                           ;Keypad_Security_Lock.c: 481:     EEDATA=check[2];
  2116  0012F4  C03F  FFA8         	movff	_check+4,4008	;volatile
  2117  0012F8                     
  2118                           ;Keypad_Security_Lock.c: 482:     EE_WRT();
  2119  0012F8  EC15  F00F         	call	_EE_WRT	;wreg free
  2120  0012FC                     
  2121                           ;Keypad_Security_Lock.c: 483:     lcddata('*');
  2122  0012FC  0E2A               	movlw	42
  2123  0012FE  EC51  F00F         	call	_lcddata
  2124  001302                     l2853:
  2125  001302  FFFF               	dw	65535	; assembler added errata NOP
  2126  001304  EC8A  F00B         	call	_keypad	;wreg free
  2127  001308  503F               	movf	(_check+4)^0,w,c
  2128  00130A  1818               	xorwf	?_keypad^0,w,c
  2129  00130C  E10A               	bnz	u2860
  2130  00130E  5040               	movf	(_check+5)^0,w,c
  2131  001310  1819               	xorwf	(?_keypad+1)^0,w,c
  2132  001312  B4D8               	btfsc	status,2,c
  2133  001314  EF8E  F009         	goto	u2861
  2134  001318  EF91  F009         	goto	u2860
  2135  00131C                     u2861:
  2136  00131C  FFFF               	dw	65535	; assembler added errata NOP
  2137  00131E  EF81  F009         	goto	l2853
  2138  001322                     u2860:
  2139  001322  FFFF               	dw	65535	; assembler added errata NOP
  2140  001324                     
  2141                           ;Keypad_Security_Lock.c: 489:     temp_1=keypad();
  2142  001324  EC8A  F00B         	call	_keypad	;wreg free
  2143  001328  C018  F060         	movff	?_keypad,change_pass@temp_1
  2144  00132C  C019  F061         	movff	?_keypad+1,change_pass@temp_1+1
  2145  001330                     l2857:
  2146  001330  FFFF               	dw	65535	; assembler added errata NOP
  2147  001332  EC8A  F00B         	call	_keypad	;wreg free
  2148  001336  0100               	movlb	0	; () banked
  2149  001338  5160               	movf	change_pass@temp_1& (0+255),w,b
  2150  00133A  1818               	xorwf	?_keypad^0,w,c
  2151  00133C  E10A               	bnz	u2870
  2152  00133E  5161               	movf	(change_pass@temp_1+1)& (0+255),w,b
  2153  001340  1819               	xorwf	(?_keypad+1)^0,w,c
  2154  001342  B4D8               	btfsc	status,2,c
  2155  001344  EFA6  F009         	goto	u2871
  2156  001348  EFA9  F009         	goto	u2870
  2157  00134C                     u2871:
  2158  00134C  FFFF               	dw	65535	; assembler added errata NOP
  2159  00134E  EF98  F009         	goto	l2857
  2160  001352                     u2870:
  2161  001352  FFFF               	dw	65535	; assembler added errata NOP
  2162  001354                     
  2163                           ; BSR set to: 0
  2164                           ;Keypad_Security_Lock.c: 492:     check[3]=keypad();
  2165  001354  EC8A  F00B         	call	_keypad	;wreg free
  2166  001358  C018  F041         	movff	?_keypad,_check+6
  2167  00135C  C019  F042         	movff	?_keypad+1,_check+7
  2168  001360                     
  2169                           ;Keypad_Security_Lock.c: 493:     EEADR=0x3;
  2170  001360  0E03               	movlw	3
  2171  001362  6EA9               	movwf	169,c	;volatile
  2172  001364                     
  2173                           ;Keypad_Security_Lock.c: 494:     EEDATA=check[3];
  2174  001364  C041  FFA8         	movff	_check+6,4008	;volatile
  2175  001368                     
  2176                           ;Keypad_Security_Lock.c: 495:     EE_WRT();
  2177  001368  EC15  F00F         	call	_EE_WRT	;wreg free
  2178  00136C                     
  2179                           ;Keypad_Security_Lock.c: 496:     lcddata('*');
  2180  00136C  0E2A               	movlw	42
  2181  00136E  EC51  F00F         	call	_lcddata
  2182  001372                     l2869:
  2183  001372  FFFF               	dw	65535	; assembler added errata NOP
  2184  001374  EC8A  F00B         	call	_keypad	;wreg free
  2185  001378  5041               	movf	(_check+6)^0,w,c
  2186  00137A  1818               	xorwf	?_keypad^0,w,c
  2187  00137C  E10A               	bnz	u2880
  2188  00137E  5042               	movf	(_check+7)^0,w,c
  2189  001380  1819               	xorwf	(?_keypad+1)^0,w,c
  2190  001382  B4D8               	btfsc	status,2,c
  2191  001384  EFC6  F009         	goto	u2881
  2192  001388  EFC9  F009         	goto	u2880
  2193  00138C                     u2881:
  2194  00138C  FFFF               	dw	65535	; assembler added errata NOP
  2195  00138E  EFB9  F009         	goto	l2869
  2196  001392                     u2880:
  2197  001392  FFFF               	dw	65535	; assembler added errata NOP
  2198  001394                     
  2199                           ;Keypad_Security_Lock.c: 502:     temp_1=keypad();
  2200  001394  EC8A  F00B         	call	_keypad	;wreg free
  2201  001398  C018  F060         	movff	?_keypad,change_pass@temp_1
  2202  00139C  C019  F061         	movff	?_keypad+1,change_pass@temp_1+1
  2203  0013A0                     l2873:
  2204  0013A0  FFFF               	dw	65535	; assembler added errata NOP
  2205  0013A2  EC8A  F00B         	call	_keypad	;wreg free
  2206  0013A6  0100               	movlb	0	; () banked
  2207  0013A8  5160               	movf	change_pass@temp_1& (0+255),w,b
  2208  0013AA  1818               	xorwf	?_keypad^0,w,c
  2209  0013AC  E10A               	bnz	u2890
  2210  0013AE  5161               	movf	(change_pass@temp_1+1)& (0+255),w,b
  2211  0013B0  1819               	xorwf	(?_keypad+1)^0,w,c
  2212  0013B2  B4D8               	btfsc	status,2,c
  2213  0013B4  EFDE  F009         	goto	u2891
  2214  0013B8  EFE1  F009         	goto	u2890
  2215  0013BC                     u2891:
  2216  0013BC  FFFF               	dw	65535	; assembler added errata NOP
  2217  0013BE  EFD0  F009         	goto	l2873
  2218  0013C2                     u2890:
  2219  0013C2  FFFF               	dw	65535	; assembler added errata NOP
  2220  0013C4                     
  2221                           ; BSR set to: 0
  2222                           ;Keypad_Security_Lock.c: 505:     check[4]=keypad();
  2223  0013C4  EC8A  F00B         	call	_keypad	;wreg free
  2224  0013C8  C018  F043         	movff	?_keypad,_check+8
  2225  0013CC  C019  F044         	movff	?_keypad+1,_check+9
  2226  0013D0                     
  2227                           ;Keypad_Security_Lock.c: 506:     EEADR=0x4;
  2228  0013D0  0E04               	movlw	4
  2229  0013D2  6EA9               	movwf	169,c	;volatile
  2230  0013D4                     
  2231                           ;Keypad_Security_Lock.c: 507:     EEDATA=check[4];
  2232  0013D4  C043  FFA8         	movff	_check+8,4008	;volatile
  2233  0013D8                     
  2234                           ;Keypad_Security_Lock.c: 508:     EE_WRT();
  2235  0013D8  EC15  F00F         	call	_EE_WRT	;wreg free
  2236  0013DC                     
  2237                           ;Keypad_Security_Lock.c: 509:     lcddata('*');
  2238  0013DC  0E2A               	movlw	42
  2239  0013DE  EC51  F00F         	call	_lcddata
  2240  0013E2                     l2885:
  2241  0013E2  FFFF               	dw	65535	; assembler added errata NOP
  2242  0013E4  EC8A  F00B         	call	_keypad	;wreg free
  2243  0013E8  5043               	movf	(_check+8)^0,w,c
  2244  0013EA  1818               	xorwf	?_keypad^0,w,c
  2245  0013EC  E10A               	bnz	u2900
  2246  0013EE  5044               	movf	(_check+9)^0,w,c
  2247  0013F0  1819               	xorwf	(?_keypad+1)^0,w,c
  2248  0013F2  B4D8               	btfsc	status,2,c
  2249  0013F4  EFFE  F009         	goto	u2901
  2250  0013F8  EF01  F00A         	goto	u2900
  2251  0013FC                     u2901:
  2252  0013FC  FFFF               	dw	65535	; assembler added errata NOP
  2253  0013FE  EFF1  F009         	goto	l2885
  2254  001402                     u2900:
  2255  001402  FFFF               	dw	65535	; assembler added errata NOP
  2256  001404                     
  2257                           ;Keypad_Security_Lock.c: 511:     EECON1bits.WREN=0;
  2258  001404  94A6               	bcf	166,2,c	;volsfr
  2259  001406                     
  2260                           ;Keypad_Security_Lock.c: 513:     lcdcmd(0x01);
  2261  001406  0E01               	movlw	1
  2262  001408  EC41  F00F         	call	_lcdcmd
  2263                           
  2264                           ;Keypad_Security_Lock.c: 514:     lcdcmd(0x80);
  2265  00140C  0E80               	movlw	128
  2266  00140E  EC41  F00F         	call	_lcdcmd
  2267  001412                     
  2268                           ;Keypad_Security_Lock.c: 515:     lcd_string("PASSWORD CHANGED",16);
  2269  001412  0E0B               	movlw	low STR_13
  2270  001414  6E20               	movwf	lcd_string@str^0,c
  2271  001416  0E06               	movlw	high STR_13
  2272  001418  6E21               	movwf	(lcd_string@str+1)^0,c
  2273  00141A  0E10               	movlw	16
  2274  00141C  6E22               	movwf	lcd_string@num^0,c
  2275  00141E  ECA1  F00E         	call	_lcd_string	;wreg free
  2276  001422                     
  2277                           ;Keypad_Security_Lock.c: 516:     lcdcmd(0xC0);
  2278  001422  0EC0               	movlw	192
  2279  001424  EC41  F00F         	call	_lcdcmd
  2280                           
  2281                           ;Keypad_Security_Lock.c: 517:     lcd_string("SUCCESSFULLY",12);
  2282  001428  0E9B               	movlw	low STR_14
  2283  00142A  6E20               	movwf	lcd_string@str^0,c
  2284  00142C  0E06               	movlw	high STR_14
  2285  00142E  6E21               	movwf	(lcd_string@str+1)^0,c
  2286  001430  0E0C               	movlw	12
  2287  001432  6E22               	movwf	lcd_string@num^0,c
  2288  001434  ECA1  F00E         	call	_lcd_string	;wreg free
  2289  001438                     
  2290                           ;Keypad_Security_Lock.c: 518:     delay(500);
  2291  001438  0E01               	movlw	1
  2292  00143A  6E19               	movwf	(delay@ms+1)^0,c
  2293  00143C  0EF4               	movlw	244
  2294  00143E  6E18               	movwf	delay@ms^0,c
  2295  001440  EC0A  F00E         	call	_delay	;wreg free
  2296  001444                     
  2297                           ;Keypad_Security_Lock.c: 519:     lcdcmd(0x01);
  2298  001444  0E01               	movlw	1
  2299  001446  EC41  F00F         	call	_lcdcmd
  2300  00144A                     
  2301                           ;Keypad_Security_Lock.c: 520:     lcdcmd(0x80);
  2302  00144A  0E80               	movlw	128
  2303  00144C  EC41  F00F         	call	_lcdcmd
  2304  001450                     
  2305                           ;Keypad_Security_Lock.c: 521:     lcd_string("ENTER PASSWORD",14);
  2306  001450  0E6F               	movlw	low STR_1
  2307  001452  6E20               	movwf	lcd_string@str^0,c
  2308  001454  0E06               	movlw	high STR_1
  2309  001456  6E21               	movwf	(lcd_string@str+1)^0,c
  2310  001458  0E0E               	movlw	14
  2311  00145A  6E22               	movwf	lcd_string@num^0,c
  2312  00145C  ECA1  F00E         	call	_lcd_string	;wreg free
  2313                           
  2314                           ;Keypad_Security_Lock.c: 522:     lcdcmd(0xC0);
  2315  001460  0EC0               	movlw	192
  2316  001462  EC41  F00F         	call	_lcdcmd
  2317  001466  0012               	return		;funcret
  2318  001468  FFFF               	dw	65535	; errata NOP
  2319  00146A                     __end_of_change_pass:
  2320                           	opt callstack 0
  2321                           
  2322 ;; *************** function _lcdcmd *****************
  2323 ;; Defined at:
  2324 ;;		line 187 in file "Keypad_Security_Lock.c"
  2325 ;; Parameters:    Size  Location     Type
  2326 ;;  value           1    wreg     unsigned char 
  2327 ;; Auto vars:     Size  Location     Type
  2328 ;;  value           1   30[COMRAM] unsigned char 
  2329 ;; Return value:  Size  Location     Type
  2330 ;;                  1    wreg      void 
  2331 ;; Registers used:
  2332 ;;		wreg, status,2, status,0, cstack
  2333 ;; Tracked objects:
  2334 ;;		On entry : 0/0
  2335 ;;		On exit  : 0/0
  2336 ;;		Unchanged: 0/0
  2337 ;; Data sizes:     COMRAM   BANK0   BANK1   BANK2   BANK3   BANK4   BANK5
  2338 ;;      Params:         0       0       0       0       0       0       0
  2339 ;;      Locals:         1       0       0       0       0       0       0
  2340 ;;      Temps:          0       0       0       0       0       0       0
  2341 ;;      Totals:         1       0       0       0       0       0       0
  2342 ;;Total ram usage:        1 bytes
  2343 ;; Hardware stack levels used:    1
  2344 ;; Hardware stack levels required when called:    7
  2345 ;; This function calls:
  2346 ;;		_delay
  2347 ;; This function is called by:
  2348 ;;		_lcd_initialize
  2349 ;;		_check_pass
  2350 ;;		_master_pass_fun
  2351 ;;		_change_pass
  2352 ;; This function uses a non-reentrant model
  2353 ;;
  2354                           
  2355                           	psect	text7
  2356  001E82                     __ptext7:
  2357                           	opt callstack 0
  2358  001E82                     _lcdcmd:
  2359                           	opt callstack 0
  2360  001E82  FFFF               	dw	65535	; assembler added errata NOP
  2361                           
  2362                           ;incstack = 0
  2363                           ;lcdcmd@value stored from wreg
  2364  001E84  6E1F               	movwf	lcdcmd@value^0,c
  2365  001E86                     
  2366                           ;Keypad_Security_Lock.c: 188:     PORTD=value;
  2367  001E86  C01F  FF83         	movff	lcdcmd@value,3971	;volatile
  2368  001E8A                     
  2369                           ;Keypad_Security_Lock.c: 189:     PORTBbits.RB7=0;
  2370  001E8A  9E81               	bcf	129,7,c	;volatile
  2371  001E8C                     
  2372                           ;Keypad_Security_Lock.c: 190:     PORTBbits.RB6=0;
  2373  001E8C  9C81               	bcf	129,6,c	;volatile
  2374  001E8E                     
  2375                           ;Keypad_Security_Lock.c: 191:     PORTBbits.RB5=1;
  2376  001E8E  8A81               	bsf	129,5,c	;volatile
  2377  001E90                     
  2378                           ;Keypad_Security_Lock.c: 192:     delay(20);
  2379  001E90  0E00               	movlw	0
  2380  001E92  6E19               	movwf	(delay@ms+1)^0,c
  2381  001E94  0E14               	movlw	20
  2382  001E96  6E18               	movwf	delay@ms^0,c
  2383  001E98  EC0A  F00E         	call	_delay	;wreg free
  2384  001E9C                     
  2385                           ;Keypad_Security_Lock.c: 193:     PORTBbits.RB5=0;
  2386  001E9C  9A81               	bcf	129,5,c	;volatile
  2387  001E9E  0012               	return		;funcret
  2388  001EA0  FFFF               	dw	65535	; errata NOP
  2389  001EA2                     __end_of_lcdcmd:
  2390                           	opt callstack 0
  2391                           
  2392 ;; *************** function _lcd_string *****************
  2393 ;; Defined at:
  2394 ;;		line 205 in file "Keypad_Security_Lock.c"
  2395 ;; Parameters:    Size  Location     Type
  2396 ;;  str             2   31[COMRAM] PTR unsigned char 
  2397 ;;		 -> STR_15(15), STR_14(13), STR_13(17), STR_12(15), 
  2398 ;;		 -> STR_11(10), STR_10(17), STR_9(17), STR_8(17), 
  2399 ;;		 -> STR_7(14), STR_6(14), STR_5(14), STR_4(15), 
  2400 ;;		 -> STR_3(9), STR_2(17), STR_1(15), 
  2401 ;;  num             1   33[COMRAM] unsigned char 
  2402 ;; Auto vars:     Size  Location     Type
  2403 ;;  i               2   36[COMRAM] unsigned int 
  2404 ;; Return value:  Size  Location     Type
  2405 ;;                  1    wreg      void 
  2406 ;; Registers used:
  2407 ;;		wreg, status,2, status,0, tblptrl, tblptrh, tblptru, cstack
  2408 ;; Tracked objects:
  2409 ;;		On entry : 0/0
  2410 ;;		On exit  : 0/0
  2411 ;;		Unchanged: 0/0
  2412 ;; Data sizes:     COMRAM   BANK0   BANK1   BANK2   BANK3   BANK4   BANK5
  2413 ;;      Params:         3       0       0       0       0       0       0
  2414 ;;      Locals:         2       0       0       0       0       0       0
  2415 ;;      Temps:          2       0       0       0       0       0       0
  2416 ;;      Totals:         7       0       0       0       0       0       0
  2417 ;;Total ram usage:        7 bytes
  2418 ;; Hardware stack levels used:    1
  2419 ;; Hardware stack levels required when called:    8
  2420 ;; This function calls:
  2421 ;;		_lcddata
  2422 ;; This function is called by:
  2423 ;;		_check_pass
  2424 ;;		_master_pass_fun
  2425 ;;		_change_pass
  2426 ;; This function uses a non-reentrant model
  2427 ;;
  2428                           
  2429                           	psect	text8
  2430  001D42                     __ptext8:
  2431                           	opt callstack 0
  2432  001D42                     _lcd_string:
  2433                           	opt callstack 0
  2434  001D42  FFFF               	dw	65535	; assembler added errata NOP
  2435  001D44                     
  2436                           ;Keypad_Security_Lock.c: 206:     unsigned int i;;Keypad_Security_Lock.c: 207:     for(i
      +                          =0;i<num;i++){
  2437  001D44  0E00               	movlw	0
  2438  001D46  6E26               	movwf	(lcd_string@i+1)^0,c
  2439  001D48  0E00               	movlw	0
  2440  001D4A  6E25               	movwf	lcd_string@i^0,c
  2441  001D4C  EFBA  F00E         	goto	l2791
  2442  001D50                     l2787:
  2443  001D50  FFFF               	dw	65535	; assembler added errata NOP
  2444                           
  2445                           ;Keypad_Security_Lock.c: 208:         lcddata(str[i]);
  2446  001D52  5025               	movf	lcd_string@i^0,w,c
  2447  001D54  2420               	addwf	lcd_string@str^0,w,c
  2448  001D56  6E23               	movwf	??_lcd_string^0,c
  2449  001D58  5026               	movf	(lcd_string@i+1)^0,w,c
  2450  001D5A  2021               	addwfc	(lcd_string@str+1)^0,w,c
  2451  001D5C  6E24               	movwf	(??_lcd_string+1)^0,c
  2452  001D5E  C023  FFF6         	movff	??_lcd_string,tblptrl
  2453  001D62  C024  FFF7         	movff	??_lcd_string+1,tblptrh
  2454  001D66                     	if	0	;tblptru may be non-zero
  2455  001D66                     	endif
  2456  001D66                     	if	0	;tblptru may be non-zero
  2457  001D66                     	endif
  2458  001D66  0008               	tblrd		*
  2459  001D68  FFFF               	dw	65535	; errata NOP
  2460  001D6A  50F5               	movf	tablat,w,c
  2461  001D6C  EC51  F00F         	call	_lcddata
  2462  001D70                     
  2463                           ;Keypad_Security_Lock.c: 209:     }
  2464  001D70  4A25               	infsnz	lcd_string@i^0,f,c
  2465  001D72  2A26               	incf	(lcd_string@i+1)^0,f,c
  2466  001D74                     l2791:
  2467  001D74  FFFF               	dw	65535	; assembler added errata NOP
  2468  001D76  5022               	movf	lcd_string@num^0,w,c
  2469  001D78  6E23               	movwf	??_lcd_string^0,c
  2470  001D7A  6A24               	clrf	(??_lcd_string+1)^0,c
  2471  001D7C  5023               	movf	??_lcd_string^0,w,c
  2472  001D7E  5C25               	subwf	lcd_string@i^0,w,c
  2473  001D80  5024               	movf	(??_lcd_string+1)^0,w,c
  2474  001D82  5826               	subwfb	(lcd_string@i+1)^0,w,c
  2475  001D84  A0D8               	btfss	status,0,c
  2476  001D86  EFC7  F00E         	goto	u2791
  2477  001D8A  EFCA  F00E         	goto	u2790
  2478  001D8E                     u2791:
  2479  001D8E  FFFF               	dw	65535	; assembler added errata NOP
  2480  001D90  EFA8  F00E         	goto	l2787
  2481  001D94                     u2790:
  2482  001D94  FFFF               	dw	65535	; assembler added errata NOP
  2483  001D96  0012               	return		;funcret
  2484  001D98  FFFF               	dw	65535	; errata NOP
  2485  001D9A                     __end_of_lcd_string:
  2486                           	opt callstack 0
  2487                           
  2488 ;; *************** function _lcddata *****************
  2489 ;; Defined at:
  2490 ;;		line 196 in file "Keypad_Security_Lock.c"
  2491 ;; Parameters:    Size  Location     Type
  2492 ;;  value           1    wreg     unsigned char 
  2493 ;; Auto vars:     Size  Location     Type
  2494 ;;  value           1   30[COMRAM] unsigned char 
  2495 ;; Return value:  Size  Location     Type
  2496 ;;                  1    wreg      void 
  2497 ;; Registers used:
  2498 ;;		wreg, status,2, status,0, cstack
  2499 ;; Tracked objects:
  2500 ;;		On entry : 0/0
  2501 ;;		On exit  : 0/0
  2502 ;;		Unchanged: 0/0
  2503 ;; Data sizes:     COMRAM   BANK0   BANK1   BANK2   BANK3   BANK4   BANK5
  2504 ;;      Params:         0       0       0       0       0       0       0
  2505 ;;      Locals:         1       0       0       0       0       0       0
  2506 ;;      Temps:          0       0       0       0       0       0       0
  2507 ;;      Totals:         1       0       0       0       0       0       0
  2508 ;;Total ram usage:        1 bytes
  2509 ;; Hardware stack levels used:    1
  2510 ;; Hardware stack levels required when called:    7
  2511 ;; This function calls:
  2512 ;;		_delay
  2513 ;; This function is called by:
  2514 ;;		_lcd_string
  2515 ;;		_check_pass
  2516 ;;		_master_pass_fun
  2517 ;;		_change_pass
  2518 ;; This function uses a non-reentrant model
  2519 ;;
  2520                           
  2521                           	psect	text9
  2522  001EA2                     __ptext9:
  2523                           	opt callstack 0
  2524  001EA2                     _lcddata:
  2525                           	opt callstack 0
  2526  001EA2  FFFF               	dw	65535	; assembler added errata NOP
  2527                           
  2528                           ;incstack = 0
  2529                           ;lcddata@value stored from wreg
  2530  001EA4  6E1F               	movwf	lcddata@value^0,c
  2531  001EA6                     
  2532                           ;Keypad_Security_Lock.c: 197:     PORTD=value;
  2533  001EA6  C01F  FF83         	movff	lcddata@value,3971	;volatile
  2534  001EAA                     
  2535                           ;Keypad_Security_Lock.c: 198:     PORTBbits.RB7=1;
  2536  001EAA  8E81               	bsf	129,7,c	;volatile
  2537  001EAC                     
  2538                           ;Keypad_Security_Lock.c: 199:     PORTBbits.RB6=0;
  2539  001EAC  9C81               	bcf	129,6,c	;volatile
  2540  001EAE                     
  2541                           ;Keypad_Security_Lock.c: 200:     PORTBbits.RB5=1;
  2542  001EAE  8A81               	bsf	129,5,c	;volatile
  2543  001EB0                     
  2544                           ;Keypad_Security_Lock.c: 201:     delay(20);
  2545  001EB0  0E00               	movlw	0
  2546  001EB2  6E19               	movwf	(delay@ms+1)^0,c
  2547  001EB4  0E14               	movlw	20
  2548  001EB6  6E18               	movwf	delay@ms^0,c
  2549  001EB8  EC0A  F00E         	call	_delay	;wreg free
  2550  001EBC                     
  2551                           ;Keypad_Security_Lock.c: 202:     PORTBbits.RB5=0;
  2552  001EBC  9A81               	bcf	129,5,c	;volatile
  2553  001EBE  0012               	return		;funcret
  2554  001EC0  FFFF               	dw	65535	; errata NOP
  2555  001EC2                     __end_of_lcddata:
  2556                           	opt callstack 0
  2557                           
  2558 ;; *************** function _delay *****************
  2559 ;; Defined at:
  2560 ;;		line 180 in file "Keypad_Security_Lock.c"
  2561 ;; Parameters:    Size  Location     Type
  2562 ;;  ms              2   23[COMRAM] int 
  2563 ;; Auto vars:     Size  Location     Type
  2564 ;;  j               2   28[COMRAM] int 
  2565 ;;  i               2   26[COMRAM] int 
  2566 ;; Return value:  Size  Location     Type
  2567 ;;                  1    wreg      void 
  2568 ;; Registers used:
  2569 ;;		wreg, status,2, status,0
  2570 ;; Tracked objects:
  2571 ;;		On entry : 0/0
  2572 ;;		On exit  : 0/0
  2573 ;;		Unchanged: 0/0
  2574 ;; Data sizes:     COMRAM   BANK0   BANK1   BANK2   BANK3   BANK4   BANK5
  2575 ;;      Params:         2       0       0       0       0       0       0
  2576 ;;      Locals:         4       0       0       0       0       0       0
  2577 ;;      Temps:          1       0       0       0       0       0       0
  2578 ;;      Totals:         7       0       0       0       0       0       0
  2579 ;;Total ram usage:        7 bytes
  2580 ;; Hardware stack levels used:    1
  2581 ;; Hardware stack levels required when called:    6
  2582 ;; This function calls:
  2583 ;;		Nothing
  2584 ;; This function is called by:
  2585 ;;		_lcdcmd
  2586 ;;		_lcddata
  2587 ;;		_check_pass
  2588 ;;		_master_pass_fun
  2589 ;;		_change_pass
  2590 ;; This function uses a non-reentrant model
  2591 ;;
  2592                           
  2593                           	psect	text10
  2594  001C14                     __ptext10:
  2595                           	opt callstack 0
  2596  001C14                     _delay:
  2597                           	opt callstack 0
  2598  001C14  FFFF               	dw	65535	; assembler added errata NOP
  2599  001C16                     
  2600                           ;Keypad_Security_Lock.c: 181:     int i,j;;Keypad_Security_Lock.c: 182:     for(i=0; i<m
      +                          s; i++)
  2601  001C16  0E00               	movlw	0
  2602  001C18  6E1C               	movwf	(delay@i+1)^0,c
  2603  001C1A  0E00               	movlw	0
  2604  001C1C  6E1B               	movwf	delay@i^0,c
  2605  001C1E  EF2B  F00E         	goto	l2667
  2606  001C22                     l2655:
  2607  001C22  FFFF               	dw	65535	; assembler added errata NOP
  2608                           
  2609                           ;Keypad_Security_Lock.c: 183:         for(j=0; j<75; j++);
  2610  001C24  0E00               	movlw	0
  2611  001C26  6E1E               	movwf	(delay@j+1)^0,c
  2612  001C28  0E00               	movlw	0
  2613  001C2A  6E1D               	movwf	delay@j^0,c
  2614  001C2C                     l2661:
  2615  001C2C  FFFF               	dw	65535	; assembler added errata NOP
  2616  001C2E  4A1D               	infsnz	delay@j^0,f,c
  2617  001C30  2A1E               	incf	(delay@j+1)^0,f,c
  2618  001C32  BE1E               	btfsc	(delay@j+1)^0,7,c
  2619  001C34  EF25  F00E         	goto	u2531
  2620  001C38  501E               	movf	(delay@j+1)^0,w,c
  2621  001C3A  E10A               	bnz	u2530
  2622  001C3C  0E4B               	movlw	75
  2623  001C3E  5C1D               	subwf	delay@j^0,w,c
  2624  001C40  A0D8               	btfss	status,0,c
  2625  001C42  EF25  F00E         	goto	u2531
  2626  001C46  EF28  F00E         	goto	u2530
  2627  001C4A                     u2531:
  2628  001C4A  FFFF               	dw	65535	; assembler added errata NOP
  2629  001C4C  EF16  F00E         	goto	l2661
  2630  001C50                     u2530:
  2631  001C50  FFFF               	dw	65535	; assembler added errata NOP
  2632  001C52  4A1B               	infsnz	delay@i^0,f,c
  2633  001C54  2A1C               	incf	(delay@i+1)^0,f,c
  2634  001C56                     l2667:
  2635  001C56  FFFF               	dw	65535	; assembler added errata NOP
  2636  001C58  5018               	movf	delay@ms^0,w,c
  2637  001C5A  5C1B               	subwf	delay@i^0,w,c
  2638  001C5C  501C               	movf	(delay@i+1)^0,w,c
  2639  001C5E  0A80               	xorlw	128
  2640  001C60  6E1A               	movwf	??_delay^0,c
  2641  001C62  5019               	movf	(delay@ms+1)^0,w,c
  2642  001C64  0A80               	xorlw	128
  2643  001C66  581A               	subwfb	??_delay^0,w,c
  2644  001C68  A0D8               	btfss	status,0,c
  2645  001C6A  EF39  F00E         	goto	u2541
  2646  001C6E  EF3C  F00E         	goto	u2540
  2647  001C72                     u2541:
  2648  001C72  FFFF               	dw	65535	; assembler added errata NOP
  2649  001C74  EF11  F00E         	goto	l2655
  2650  001C78                     u2540:
  2651  001C78  FFFF               	dw	65535	; assembler added errata NOP
  2652  001C7A  0012               	return		;funcret
  2653  001C7C  FFFF               	dw	65535	; errata NOP
  2654  001C7E                     __end_of_delay:
  2655                           	opt callstack 0
  2656                           
  2657 ;; *************** function _keypad *****************
  2658 ;; Defined at:
  2659 ;;		line 117 in file "Keypad_Security_Lock.c"
  2660 ;; Parameters:    Size  Location     Type
  2661 ;;		None
  2662 ;; Auto vars:     Size  Location     Type
  2663 ;;		None
  2664 ;; Return value:  Size  Location     Type
  2665 ;;                  2   23[COMRAM] int 
  2666 ;; Registers used:
  2667 ;;		wreg, status,2
  2668 ;; Tracked objects:
  2669 ;;		On entry : 0/0
  2670 ;;		On exit  : 0/0
  2671 ;;		Unchanged: 0/0
  2672 ;; Data sizes:     COMRAM   BANK0   BANK1   BANK2   BANK3   BANK4   BANK5
  2673 ;;      Params:         2       0       0       0       0       0       0
  2674 ;;      Locals:         0       0       0       0       0       0       0
  2675 ;;      Temps:          0       0       0       0       0       0       0
  2676 ;;      Totals:         2       0       0       0       0       0       0
  2677 ;;Total ram usage:        2 bytes
  2678 ;; Hardware stack levels used:    1
  2679 ;; Hardware stack levels required when called:    6
  2680 ;; This function calls:
  2681 ;;		Nothing
  2682 ;; This function is called by:
  2683 ;;		_check_pass
  2684 ;;		_master_pass_fun
  2685 ;;		_change_pass
  2686 ;; This function uses a non-reentrant model
  2687 ;;
  2688                           
  2689                           	psect	text11
  2690  001714                     __ptext11:
  2691                           	opt callstack 0
  2692  001714                     _keypad:
  2693                           	opt callstack 0
  2694  001714  FFFF               	dw	65535	; assembler added errata NOP
  2695  001716                     
  2696                           ;Keypad_Security_Lock.c: 119:     PORTCbits.RC0 =1;PORTCbits.RC1 =0;PORTCbits.RC2 =0;
  2697  001716  8082               	bsf	130,0,c	;volatile
  2698  001718  9282               	bcf	130,1,c	;volatile
  2699  00171A  9482               	bcf	130,2,c	;volatile
  2700                           
  2701                           ;Keypad_Security_Lock.c: 120:     if (PORTCbits.RC4==1){
  2702  00171C  A882               	btfss	130,4,c	;volatile
  2703  00171E  EF93  F00B         	goto	u2551
  2704  001722  EF96  F00B         	goto	u2550
  2705  001726                     u2551:
  2706  001726  FFFF               	dw	65535	; assembler added errata NOP
  2707  001728  EFAA  F00B         	goto	l77
  2708  00172C                     u2550:
  2709  00172C  FFFF               	dw	65535	; assembler added errata NOP
  2710  00172E                     l78:
  2711  00172E  FFFF               	dw	65535	; assembler added errata NOP
  2712  001730  B882               	btfsc	130,4,c	;volatile
  2713  001732  EF9D  F00B         	goto	u2561
  2714  001736  EFA0  F00B         	goto	u2560
  2715  00173A                     u2561:
  2716  00173A  FFFF               	dw	65535	; assembler added errata NOP
  2717  00173C  EF97  F00B         	goto	l78
  2718  001740                     u2560:
  2719  001740  FFFF               	dw	65535	; assembler added errata NOP
  2720  001742                     
  2721                           ;Keypad_Security_Lock.c: 122:         return 1;
  2722  001742  0E00               	movlw	0
  2723  001744  6E19               	movwf	(?_keypad+1)^0,c
  2724  001746  0E01               	movlw	1
  2725  001748  6E18               	movwf	?_keypad^0,c
  2726  00174A  EFC7  F00C         	goto	l81
  2727  00174E                     l2699:
  2728  00174E  FFFF               	dw	65535	; assembler added errata NOP
  2729  001750  EFC7  F00C         	goto	l81
  2730  001754                     l77:
  2731  001754  FFFF               	dw	65535	; assembler added errata NOP
  2732  001756  AA82               	btfss	130,5,c	;volatile
  2733  001758  EFB0  F00B         	goto	u2571
  2734  00175C  EFB3  F00B         	goto	u2570
  2735  001760                     u2571:
  2736  001760  FFFF               	dw	65535	; assembler added errata NOP
  2737  001762  EFC4  F00B         	goto	l83
  2738  001766                     u2570:
  2739  001766  FFFF               	dw	65535	; assembler added errata NOP
  2740  001768                     l84:
  2741  001768  FFFF               	dw	65535	; assembler added errata NOP
  2742  00176A  BA82               	btfsc	130,5,c	;volatile
  2743  00176C  EFBA  F00B         	goto	u2581
  2744  001770  EFBD  F00B         	goto	u2580
  2745  001774                     u2581:
  2746  001774  FFFF               	dw	65535	; assembler added errata NOP
  2747  001776  EFB4  F00B         	goto	l84
  2748  00177A                     u2580:
  2749  00177A  FFFF               	dw	65535	; assembler added errata NOP
  2750  00177C                     
  2751                           ;Keypad_Security_Lock.c: 126:         return 4;
  2752  00177C  0E00               	movlw	0
  2753  00177E  6E19               	movwf	(?_keypad+1)^0,c
  2754  001780  0E04               	movlw	4
  2755  001782  6E18               	movwf	?_keypad^0,c
  2756  001784  EFC7  F00C         	goto	l81
  2757  001788                     l83:
  2758  001788  FFFF               	dw	65535	; assembler added errata NOP
  2759  00178A  AC82               	btfss	130,6,c	;volatile
  2760  00178C  EFCA  F00B         	goto	u2591
  2761  001790  EFCD  F00B         	goto	u2590
  2762  001794                     u2591:
  2763  001794  FFFF               	dw	65535	; assembler added errata NOP
  2764  001796  EFDE  F00B         	goto	l88
  2765  00179A                     u2590:
  2766  00179A  FFFF               	dw	65535	; assembler added errata NOP
  2767  00179C                     l89:
  2768  00179C  FFFF               	dw	65535	; assembler added errata NOP
  2769  00179E  BC82               	btfsc	130,6,c	;volatile
  2770  0017A0  EFD4  F00B         	goto	u2601
  2771  0017A4  EFD7  F00B         	goto	u2600
  2772  0017A8                     u2601:
  2773  0017A8  FFFF               	dw	65535	; assembler added errata NOP
  2774  0017AA  EFCE  F00B         	goto	l89
  2775  0017AE                     u2600:
  2776  0017AE  FFFF               	dw	65535	; assembler added errata NOP
  2777  0017B0                     
  2778                           ;Keypad_Security_Lock.c: 130:         return 7;
  2779  0017B0  0E00               	movlw	0
  2780  0017B2  6E19               	movwf	(?_keypad+1)^0,c
  2781  0017B4  0E07               	movlw	7
  2782  0017B6  6E18               	movwf	?_keypad^0,c
  2783  0017B8  EFC7  F00C         	goto	l81
  2784  0017BC                     l88:
  2785  0017BC  FFFF               	dw	65535	; assembler added errata NOP
  2786  0017BE  AE82               	btfss	130,7,c	;volatile
  2787  0017C0  EFE4  F00B         	goto	u2611
  2788  0017C4  EFE7  F00B         	goto	u2610
  2789  0017C8                     u2611:
  2790  0017C8  FFFF               	dw	65535	; assembler added errata NOP
  2791  0017CA  EFF9  F00B         	goto	l82
  2792  0017CE                     u2610:
  2793  0017CE  FFFF               	dw	65535	; assembler added errata NOP
  2794  0017D0                     l94:
  2795  0017D0  FFFF               	dw	65535	; assembler added errata NOP
  2796  0017D2  BE82               	btfsc	130,7,c	;volatile
  2797  0017D4  EFEE  F00B         	goto	u2621
  2798  0017D8  EFF1  F00B         	goto	u2620
  2799  0017DC                     u2621:
  2800  0017DC  FFFF               	dw	65535	; assembler added errata NOP
  2801  0017DE  EFE8  F00B         	goto	l94
  2802  0017E2                     u2620:
  2803  0017E2  FFFF               	dw	65535	; assembler added errata NOP
  2804  0017E4                     l2721:
  2805  0017E4  FFFF               	dw	65535	; assembler added errata NOP
  2806                           
  2807                           ;Keypad_Security_Lock.c: 134:         return 0;
  2808  0017E6  0E00               	movlw	0
  2809  0017E8  6E19               	movwf	(?_keypad+1)^0,c
  2810  0017EA  0E00               	movlw	0
  2811  0017EC  6E18               	movwf	?_keypad^0,c
  2812  0017EE  EFC7  F00C         	goto	l81
  2813  0017F2                     l82:
  2814  0017F2  FFFF               	dw	65535	; assembler added errata NOP
  2815                           
  2816                           ;Keypad_Security_Lock.c: 138:     PORTCbits.RC0 =0;PORTCbits.RC1 =1;PORTCbits.RC2 =0;
  2817  0017F4  9082               	bcf	130,0,c	;volatile
  2818  0017F6  8282               	bsf	130,1,c	;volatile
  2819  0017F8  9482               	bcf	130,2,c	;volatile
  2820                           
  2821                           ;Keypad_Security_Lock.c: 139:     if (PORTCbits.RC4==1){
  2822  0017FA  A882               	btfss	130,4,c	;volatile
  2823  0017FC  EF02  F00C         	goto	u2631
  2824  001800  EF05  F00C         	goto	u2630
  2825  001804                     u2631:
  2826  001804  FFFF               	dw	65535	; assembler added errata NOP
  2827  001806  EF16  F00C         	goto	l97
  2828  00180A                     u2630:
  2829  00180A  FFFF               	dw	65535	; assembler added errata NOP
  2830  00180C                     l98:
  2831  00180C  FFFF               	dw	65535	; assembler added errata NOP
  2832  00180E  B882               	btfsc	130,4,c	;volatile
  2833  001810  EF0C  F00C         	goto	u2641
  2834  001814  EF0F  F00C         	goto	u2640
  2835  001818                     u2641:
  2836  001818  FFFF               	dw	65535	; assembler added errata NOP
  2837  00181A  EF06  F00C         	goto	l98
  2838  00181E                     u2640:
  2839  00181E  FFFF               	dw	65535	; assembler added errata NOP
  2840  001820                     
  2841                           ;Keypad_Security_Lock.c: 141:         return 2;
  2842  001820  0E00               	movlw	0
  2843  001822  6E19               	movwf	(?_keypad+1)^0,c
  2844  001824  0E02               	movlw	2
  2845  001826  6E18               	movwf	?_keypad^0,c
  2846  001828  EFC7  F00C         	goto	l81
  2847  00182C                     l97:
  2848  00182C  FFFF               	dw	65535	; assembler added errata NOP
  2849  00182E  AA82               	btfss	130,5,c	;volatile
  2850  001830  EF1C  F00C         	goto	u2651
  2851  001834  EF1F  F00C         	goto	u2650
  2852  001838                     u2651:
  2853  001838  FFFF               	dw	65535	; assembler added errata NOP
  2854  00183A  EF30  F00C         	goto	l102
  2855  00183E                     u2650:
  2856  00183E  FFFF               	dw	65535	; assembler added errata NOP
  2857  001840                     l103:
  2858  001840  FFFF               	dw	65535	; assembler added errata NOP
  2859  001842  BA82               	btfsc	130,5,c	;volatile
  2860  001844  EF26  F00C         	goto	u2661
  2861  001848  EF29  F00C         	goto	u2660
  2862  00184C                     u2661:
  2863  00184C  FFFF               	dw	65535	; assembler added errata NOP
  2864  00184E  EF20  F00C         	goto	l103
  2865  001852                     u2660:
  2866  001852  FFFF               	dw	65535	; assembler added errata NOP
  2867  001854                     
  2868                           ;Keypad_Security_Lock.c: 145:         return 5;
  2869  001854  0E00               	movlw	0
  2870  001856  6E19               	movwf	(?_keypad+1)^0,c
  2871  001858  0E05               	movlw	5
  2872  00185A  6E18               	movwf	?_keypad^0,c
  2873  00185C  EFC7  F00C         	goto	l81
  2874  001860                     l102:
  2875  001860  FFFF               	dw	65535	; assembler added errata NOP
  2876  001862  AC82               	btfss	130,6,c	;volatile
  2877  001864  EF36  F00C         	goto	u2671
  2878  001868  EF39  F00C         	goto	u2670
  2879  00186C                     u2671:
  2880  00186C  FFFF               	dw	65535	; assembler added errata NOP
  2881  00186E  EF4A  F00C         	goto	l107
  2882  001872                     u2670:
  2883  001872  FFFF               	dw	65535	; assembler added errata NOP
  2884  001874                     l108:
  2885  001874  FFFF               	dw	65535	; assembler added errata NOP
  2886  001876  BC82               	btfsc	130,6,c	;volatile
  2887  001878  EF40  F00C         	goto	u2681
  2888  00187C  EF43  F00C         	goto	u2680
  2889  001880                     u2681:
  2890  001880  FFFF               	dw	65535	; assembler added errata NOP
  2891  001882  EF3A  F00C         	goto	l108
  2892  001886                     u2680:
  2893  001886  FFFF               	dw	65535	; assembler added errata NOP
  2894  001888                     
  2895                           ;Keypad_Security_Lock.c: 149:         return 8;
  2896  001888  0E00               	movlw	0
  2897  00188A  6E19               	movwf	(?_keypad+1)^0,c
  2898  00188C  0E08               	movlw	8
  2899  00188E  6E18               	movwf	?_keypad^0,c
  2900  001890  EFC7  F00C         	goto	l81
  2901  001894                     l107:
  2902  001894  FFFF               	dw	65535	; assembler added errata NOP
  2903  001896  AE82               	btfss	130,7,c	;volatile
  2904  001898  EF50  F00C         	goto	u2691
  2905  00189C  EF53  F00C         	goto	u2690
  2906  0018A0                     u2691:
  2907  0018A0  FFFF               	dw	65535	; assembler added errata NOP
  2908  0018A2  EF60  F00C         	goto	l101
  2909  0018A6                     u2690:
  2910  0018A6  FFFF               	dw	65535	; assembler added errata NOP
  2911  0018A8                     l113:
  2912  0018A8  FFFF               	dw	65535	; assembler added errata NOP
  2913  0018AA  BE82               	btfsc	130,7,c	;volatile
  2914  0018AC  EF5A  F00C         	goto	u2701
  2915  0018B0  EF5D  F00C         	goto	u2700
  2916  0018B4                     u2701:
  2917  0018B4  FFFF               	dw	65535	; assembler added errata NOP
  2918  0018B6  EF54  F00C         	goto	l113
  2919  0018BA                     u2700:
  2920  0018BA  FFFF               	dw	65535	; assembler added errata NOP
  2921  0018BC  EFF2  F00B         	goto	l2721
  2922  0018C0                     l101:
  2923  0018C0  FFFF               	dw	65535	; assembler added errata NOP
  2924                           
  2925                           ;Keypad_Security_Lock.c: 157:     PORTCbits.RC0 =0;PORTCbits.RC1 =0;PORTCbits.RC2 =1;
  2926  0018C2  9082               	bcf	130,0,c	;volatile
  2927  0018C4  9282               	bcf	130,1,c	;volatile
  2928  0018C6  8482               	bsf	130,2,c	;volatile
  2929                           
  2930                           ;Keypad_Security_Lock.c: 158:     if (PORTCbits.RC4==1){
  2931  0018C8  A882               	btfss	130,4,c	;volatile
  2932  0018CA  EF69  F00C         	goto	u2711
  2933  0018CE  EF6C  F00C         	goto	u2710
  2934  0018D2                     u2711:
  2935  0018D2  FFFF               	dw	65535	; assembler added errata NOP
  2936  0018D4  EF7D  F00C         	goto	l116
  2937  0018D8                     u2710:
  2938  0018D8  FFFF               	dw	65535	; assembler added errata NOP
  2939  0018DA                     l117:
  2940  0018DA  FFFF               	dw	65535	; assembler added errata NOP
  2941  0018DC  B882               	btfsc	130,4,c	;volatile
  2942  0018DE  EF73  F00C         	goto	u2721
  2943  0018E2  EF76  F00C         	goto	u2720
  2944  0018E6                     u2721:
  2945  0018E6  FFFF               	dw	65535	; assembler added errata NOP
  2946  0018E8  EF6D  F00C         	goto	l117
  2947  0018EC                     u2720:
  2948  0018EC  FFFF               	dw	65535	; assembler added errata NOP
  2949  0018EE                     
  2950                           ;Keypad_Security_Lock.c: 160:         return 3;
  2951  0018EE  0E00               	movlw	0
  2952  0018F0  6E19               	movwf	(?_keypad+1)^0,c
  2953  0018F2  0E03               	movlw	3
  2954  0018F4  6E18               	movwf	?_keypad^0,c
  2955  0018F6  EFC7  F00C         	goto	l81
  2956  0018FA                     l116:
  2957  0018FA  FFFF               	dw	65535	; assembler added errata NOP
  2958  0018FC  AA82               	btfss	130,5,c	;volatile
  2959  0018FE  EF83  F00C         	goto	u2731
  2960  001902  EF86  F00C         	goto	u2730
  2961  001906                     u2731:
  2962  001906  FFFF               	dw	65535	; assembler added errata NOP
  2963  001908  EF97  F00C         	goto	l121
  2964  00190C                     u2730:
  2965  00190C  FFFF               	dw	65535	; assembler added errata NOP
  2966  00190E                     l122:
  2967  00190E  FFFF               	dw	65535	; assembler added errata NOP
  2968  001910  BA82               	btfsc	130,5,c	;volatile
  2969  001912  EF8D  F00C         	goto	u2741
  2970  001916  EF90  F00C         	goto	u2740
  2971  00191A                     u2741:
  2972  00191A  FFFF               	dw	65535	; assembler added errata NOP
  2973  00191C  EF87  F00C         	goto	l122
  2974  001920                     u2740:
  2975  001920  FFFF               	dw	65535	; assembler added errata NOP
  2976  001922                     
  2977                           ;Keypad_Security_Lock.c: 164:         return 6;
  2978  001922  0E00               	movlw	0
  2979  001924  6E19               	movwf	(?_keypad+1)^0,c
  2980  001926  0E06               	movlw	6
  2981  001928  6E18               	movwf	?_keypad^0,c
  2982  00192A  EFC7  F00C         	goto	l81
  2983  00192E                     l121:
  2984  00192E  FFFF               	dw	65535	; assembler added errata NOP
  2985  001930  AC82               	btfss	130,6,c	;volatile
  2986  001932  EF9D  F00C         	goto	u2751
  2987  001936  EFA0  F00C         	goto	u2750
  2988  00193A                     u2751:
  2989  00193A  FFFF               	dw	65535	; assembler added errata NOP
  2990  00193C  EFB1  F00C         	goto	l126
  2991  001940                     u2750:
  2992  001940  FFFF               	dw	65535	; assembler added errata NOP
  2993  001942                     l127:
  2994  001942  FFFF               	dw	65535	; assembler added errata NOP
  2995  001944  BC82               	btfsc	130,6,c	;volatile
  2996  001946  EFA7  F00C         	goto	u2761
  2997  00194A  EFAA  F00C         	goto	u2760
  2998  00194E                     u2761:
  2999  00194E  FFFF               	dw	65535	; assembler added errata NOP
  3000  001950  EFA1  F00C         	goto	l127
  3001  001954                     u2760:
  3002  001954  FFFF               	dw	65535	; assembler added errata NOP
  3003  001956                     
  3004                           ;Keypad_Security_Lock.c: 168:         return 9;
  3005  001956  0E00               	movlw	0
  3006  001958  6E19               	movwf	(?_keypad+1)^0,c
  3007  00195A  0E09               	movlw	9
  3008  00195C  6E18               	movwf	?_keypad^0,c
  3009  00195E  EFC7  F00C         	goto	l81
  3010  001962                     l126:
  3011  001962  FFFF               	dw	65535	; assembler added errata NOP
  3012  001964  AE82               	btfss	130,7,c	;volatile
  3013  001966  EFB7  F00C         	goto	u2771
  3014  00196A  EFBA  F00C         	goto	u2770
  3015  00196E                     u2771:
  3016  00196E  FFFF               	dw	65535	; assembler added errata NOP
  3017  001970  EFA7  F00B         	goto	l2699
  3018  001974                     u2770:
  3019  001974  FFFF               	dw	65535	; assembler added errata NOP
  3020  001976                     l132:
  3021  001976  FFFF               	dw	65535	; assembler added errata NOP
  3022  001978  BE82               	btfsc	130,7,c	;volatile
  3023  00197A  EFC1  F00C         	goto	u2781
  3024  00197E  EFC4  F00C         	goto	u2780
  3025  001982                     u2781:
  3026  001982  FFFF               	dw	65535	; assembler added errata NOP
  3027  001984  EFBB  F00C         	goto	l132
  3028  001988                     u2780:
  3029  001988  FFFF               	dw	65535	; assembler added errata NOP
  3030  00198A  EFF2  F00B         	goto	l2721
  3031  00198E                     l81:
  3032  00198E  FFFF               	dw	65535	; assembler added errata NOP
  3033  001990  0012               	return		;funcret
  3034  001992  FFFF               	dw	65535	; errata NOP
  3035  001994                     __end_of_keypad:
  3036                           	opt callstack 0
  3037                           
  3038 ;; *************** function _EE_WRT *****************
  3039 ;; Defined at:
  3040 ;;		line 226 in file "Keypad_Security_Lock.c"
  3041 ;; Parameters:    Size  Location     Type
  3042 ;;		None
  3043 ;; Auto vars:     Size  Location     Type
  3044 ;;		None
  3045 ;; Return value:  Size  Location     Type
  3046 ;;                  1    wreg      void 
  3047 ;; Registers used:
  3048 ;;		wreg, status,2
  3049 ;; Tracked objects:
  3050 ;;		On entry : 0/0
  3051 ;;		On exit  : 0/0
  3052 ;;		Unchanged: 0/0
  3053 ;; Data sizes:     COMRAM   BANK0   BANK1   BANK2   BANK3   BANK4   BANK5
  3054 ;;      Params:         0       0       0       0       0       0       0
  3055 ;;      Locals:         0       0       0       0       0       0       0
  3056 ;;      Temps:          0       0       0       0       0       0       0
  3057 ;;      Totals:         0       0       0       0       0       0       0
  3058 ;;Total ram usage:        0 bytes
  3059 ;; Hardware stack levels used:    1
  3060 ;; Hardware stack levels required when called:    6
  3061 ;; This function calls:
  3062 ;;		Nothing
  3063 ;; This function is called by:
  3064 ;;		_change_pass
  3065 ;; This function uses a non-reentrant model
  3066 ;;
  3067                           
  3068                           	psect	text12
  3069  001E2A                     __ptext12:
  3070                           	opt callstack 0
  3071  001E2A                     _EE_WRT:
  3072                           	opt callstack 0
  3073  001E2A  FFFF               	dw	65535	; assembler added errata NOP
  3074  001E2C                     
  3075                           ;Keypad_Security_Lock.c: 227:     EECON1bits.EEPGD=0;
  3076  001E2C  9EA6               	bcf	166,7,c	;volsfr
  3077                           
  3078                           ;Keypad_Security_Lock.c: 228:     EECON1bits.CFGS=0;
  3079  001E2E  9CA6               	bcf	166,6,c	;volsfr
  3080                           
  3081                           ;Keypad_Security_Lock.c: 229:     EECON1bits.WREN=1;
  3082  001E30  84A6               	bsf	166,2,c	;volsfr
  3083  001E32                     
  3084                           ;Keypad_Security_Lock.c: 231:     EECON2=0x55;
  3085  001E32  0E55               	movlw	85
  3086  001E34  6EA7               	movwf	167,c	;volsfr
  3087                           
  3088                           ;Keypad_Security_Lock.c: 232:     EECON2=0xAA;
  3089  001E36  0EAA               	movlw	170
  3090  001E38  6EA7               	movwf	167,c	;volsfr
  3091  001E3A                     
  3092                           ;Keypad_Security_Lock.c: 233:     EECON1bits.WR=1;
  3093  001E3A  82A6               	bsf	166,1,c	;volsfr
  3094  001E3C                     l163:
  3095  001E3C  FFFF               	dw	65535	; assembler added errata NOP
  3096  001E3E  A8A1               	btfss	161,4,c	;volatile
  3097  001E40  EF24  F00F         	goto	u2801
  3098  001E44  EF27  F00F         	goto	u2800
  3099  001E48                     u2801:
  3100  001E48  FFFF               	dw	65535	; assembler added errata NOP
  3101  001E4A  EF1E  F00F         	goto	l163
  3102  001E4E                     u2800:
  3103  001E4E  FFFF               	dw	65535	; assembler added errata NOP
  3104  001E50                     
  3105                           ;Keypad_Security_Lock.c: 236:     PIR2bits.EEIF=0;
  3106  001E50  98A1               	bcf	161,4,c	;volatile
  3107  001E52  0012               	return		;funcret
  3108  001E54  FFFF               	dw	65535	; errata NOP
  3109  001E56                     __end_of_EE_WRT:
  3110                           	opt callstack 0
  3111                           
  3112 ;; *************** function _ISR *****************
  3113 ;; Defined at:
  3114 ;;		line 84 in file "Keypad_Security_Lock.c"
  3115 ;; Parameters:    Size  Location     Type
  3116 ;;		None
  3117 ;; Auto vars:     Size  Location     Type
  3118 ;;		None
  3119 ;; Return value:  Size  Location     Type
  3120 ;;                  1    wreg      void 
  3121 ;; Registers used:
  3122 ;;		wreg, status,2, status,0, tblptrl, tblptrh, tblptru, cstack
  3123 ;; Tracked objects:
  3124 ;;		On entry : 0/0
  3125 ;;		On exit  : 0/0
  3126 ;;		Unchanged: 0/0
  3127 ;; Data sizes:     COMRAM   BANK0   BANK1   BANK2   BANK3   BANK4   BANK5
  3128 ;;      Params:         0       0       0       0       0       0       0
  3129 ;;      Locals:         0       0       0       0       0       0       0
  3130 ;;      Temps:          4       0       0       0       0       0       0
  3131 ;;      Totals:         4       0       0       0       0       0       0
  3132 ;;Total ram usage:        4 bytes
  3133 ;; Hardware stack levels used:    1
  3134 ;; Hardware stack levels required when called:    5
  3135 ;; This function calls:
  3136 ;;		i2_lcdcmd
  3137 ;;		i2_master_pass_fun
  3138 ;; This function is called by:
  3139 ;;		Interrupt level 2
  3140 ;; This function uses a non-reentrant model
  3141 ;;
  3142                           
  3143                           	psect	intcode
  3144  000008                     __pintcode:
  3145                           	opt callstack 0
  3146  000008                     _ISR:
  3147                           	opt callstack 0
  3148  000008  FFFF               	dw	65535	; assembler added errata NOP
  3149                           
  3150                           ;incstack = 0
  3151  00000A  8247               	bsf	int$flags,1,c	;set compiler interrupt flag (level 2)
  3152  00000C  CFF6 F014          	movff	tblptrl,??_ISR
  3153  000010  CFF7 F015          	movff	tblptrh,??_ISR+1
  3154  000014  CFF8 F016          	movff	tblptru,??_ISR+2
  3155  000018  CFF5 F017          	movff	tablat,??_ISR+3
  3156  00001C                     
  3157                           ;Keypad_Security_Lock.c: 85:     if(INT0IF==1){
  3158  00001C  A2F2               	btfss	4082,1,c	;volatile
  3159  00001E  EF13  F000         	goto	i2u252_41
  3160  000022  EF16  F000         	goto	i2u252_40
  3161  000026                     i2u252_41:
  3162  000026  FFFF               	dw	65535	; assembler added errata NOP
  3163  000028  EF1E  F000         	goto	i2l66
  3164  00002C                     i2u252_40:
  3165  00002C  FFFF               	dw	65535	; assembler added errata NOP
  3166  00002E                     
  3167                           ;Keypad_Security_Lock.c: 86:         INT0IF=0;
  3168  00002E  92F2               	bcf	4082,1,c	;volatile
  3169  000030                     
  3170                           ;Keypad_Security_Lock.c: 87:         lcdcmd(0x01);
  3171  000030  0E01               	movlw	1
  3172  000032  EC61  F00F         	call	i2_lcdcmd
  3173  000036                     
  3174                           ;Keypad_Security_Lock.c: 88:         master_pass_fun();
  3175  000036  EC30  F007         	call	i2_master_pass_fun	;wreg free
  3176  00003A                     
  3177                           ;Keypad_Security_Lock.c: 89:         PORTAbits.RA2=1;
  3178  00003A  8480               	bsf	128,2,c	;volatile
  3179  00003C                     i2l66:
  3180  00003C  FFFF               	dw	65535	; assembler added errata NOP
  3181  00003E  C017  FFF5         	movff	??_ISR+3,tablat
  3182  000042  C016  FFF8         	movff	??_ISR+2,tblptru
  3183  000046  C015  FFF7         	movff	??_ISR+1,tblptrh
  3184  00004A  C014  FFF6         	movff	??_ISR,tblptrl
  3185  00004E  9247               	bcf	int$flags,1,c	;clear compiler interrupt flag (level 2)
  3186  000050  0011               	retfie		f
  3187  000052  FFFF               	dw	65535	; errata NOP
  3188  000054                     __end_of_ISR:
  3189                           	opt callstack 0
  3190                           
  3191 ;; *************** function i2_master_pass_fun *****************
  3192 ;; Defined at:
  3193 ;;		line 355 in file "Keypad_Security_Lock.c"
  3194 ;; Parameters:    Size  Location     Type
  3195 ;;		None
  3196 ;; Auto vars:     Size  Location     Type
  3197 ;;  master_pass_    2   17[COMRAM] int 
  3198 ;; Return value:  Size  Location     Type
  3199 ;;                  1    wreg      void 
  3200 ;; Registers used:
  3201 ;;		wreg, status,2, status,0, tblptrl, tblptrh, tblptru, cstack
  3202 ;; Tracked objects:
  3203 ;;		On entry : 0/0
  3204 ;;		On exit  : 0/0
  3205 ;;		Unchanged: 0/0
  3206 ;; Data sizes:     COMRAM   BANK0   BANK1   BANK2   BANK3   BANK4   BANK5
  3207 ;;      Params:         0       0       0       0       0       0       0
  3208 ;;      Locals:         2       0       0       0       0       0       0
  3209 ;;      Temps:          0       0       0       0       0       0       0
  3210 ;;      Totals:         2       0       0       0       0       0       0
  3211 ;;Total ram usage:        2 bytes
  3212 ;; Hardware stack levels used:    1
  3213 ;; Hardware stack levels required when called:    4
  3214 ;; This function calls:
  3215 ;;		i2_change_pass
  3216 ;;		i2_delay
  3217 ;;		i2_keypad
  3218 ;;		i2_lcd_string
  3219 ;;		i2_lcdcmd
  3220 ;;		i2_lcddata
  3221 ;; This function is called by:
  3222 ;;		_ISR
  3223 ;; This function uses a non-reentrant model
  3224 ;;
  3225                           
  3226                           	psect	text14
  3227  000E60                     __ptext14:
  3228                           	opt callstack 0
  3229  000E60                     i2_master_pass_fun:
  3230                           	opt callstack 0
  3231  000E60  FFFF               	dw	65535	; assembler added errata NOP
  3232  000E62                     
  3233                           ;Keypad_Security_Lock.c: 357:     lcdcmd(0x80);
  3234  000E62  0E80               	movlw	128
  3235  000E64  EC61  F00F         	call	i2_lcdcmd
  3236  000E68                     
  3237                           ;Keypad_Security_Lock.c: 358:     lcd_string("ENTER MASTER PWD",16);
  3238  000E68  0E2D               	movlw	low STR_9
  3239  000E6A  6E09               	movwf	i2lcd_string@str^0,c
  3240  000E6C  0E06               	movlw	high STR_9
  3241  000E6E  6E0A               	movwf	(i2lcd_string@str+1)^0,c
  3242  000E70  0E10               	movlw	16
  3243  000E72  6E0B               	movwf	i2lcd_string@num^0,c
  3244  000E74  ECCD  F00E         	call	i2_lcd_string	;wreg free
  3245  000E78                     
  3246                           ;Keypad_Security_Lock.c: 359:     lcdcmd(0xC0);
  3247  000E78  0EC0               	movlw	192
  3248  000E7A  EC61  F00F         	call	i2_lcdcmd
  3249  000E7E                     
  3250                           ;Keypad_Security_Lock.c: 364:     int temp_1=keypad();
  3251  000E7E  ECCA  F00C         	call	i2_keypad	;wreg free
  3252  000E82  C001  F012         	movff	?i2_keypad,i2master_pass_fun@temp_1
  3253  000E86  C002  F013         	movff	?i2_keypad+1,i2master_pass_fun@temp_1+1
  3254  000E8A                     i2l2547:
  3255  000E8A  FFFF               	dw	65535	; assembler added errata NOP
  3256  000E8C  ECCA  F00C         	call	i2_keypad	;wreg free
  3257  000E90  5012               	movf	i2master_pass_fun@temp_1^0,w,c
  3258  000E92  1801               	xorwf	?i2_keypad^0,w,c
  3259  000E94  E10A               	bnz	i2u237_40
  3260  000E96  5013               	movf	(i2master_pass_fun@temp_1+1)^0,w,c
  3261  000E98  1802               	xorwf	(?i2_keypad+1)^0,w,c
  3262  000E9A  B4D8               	btfsc	status,2,c
  3263  000E9C  EF52  F007         	goto	i2u237_41
  3264  000EA0  EF55  F007         	goto	i2u237_40
  3265  000EA4                     i2u237_41:
  3266  000EA4  FFFF               	dw	65535	; assembler added errata NOP
  3267  000EA6  EF45  F007         	goto	i2l2547
  3268  000EAA                     i2u237_40:
  3269  000EAA  FFFF               	dw	65535	; assembler added errata NOP
  3270  000EAC                     
  3271                           ;Keypad_Security_Lock.c: 369:     check_m[0]=keypad();
  3272  000EAC  ECCA  F00C         	call	i2_keypad	;wreg free
  3273  000EB0  C001  F031         	movff	?i2_keypad,_check_m
  3274  000EB4  C002  F032         	movff	?i2_keypad+1,_check_m+1
  3275  000EB8                     
  3276                           ;Keypad_Security_Lock.c: 370:     lcddata('*');
  3277  000EB8  0E2A               	movlw	42
  3278  000EBA  EC71  F00F         	call	i2_lcddata
  3279  000EBE                     i2l2553:
  3280  000EBE  FFFF               	dw	65535	; assembler added errata NOP
  3281  000EC0  ECCA  F00C         	call	i2_keypad	;wreg free
  3282  000EC4  5031               	movf	_check_m^0,w,c
  3283  000EC6  1801               	xorwf	?i2_keypad^0,w,c
  3284  000EC8  E10A               	bnz	i2u238_40
  3285  000ECA  5032               	movf	(_check_m+1)^0,w,c
  3286  000ECC  1802               	xorwf	(?i2_keypad+1)^0,w,c
  3287  000ECE  B4D8               	btfsc	status,2,c
  3288  000ED0  EF6C  F007         	goto	i2u238_41
  3289  000ED4  EF6F  F007         	goto	i2u238_40
  3290  000ED8                     i2u238_41:
  3291  000ED8  FFFF               	dw	65535	; assembler added errata NOP
  3292  000EDA  EF5F  F007         	goto	i2l2553
  3293  000EDE                     i2u238_40:
  3294  000EDE  FFFF               	dw	65535	; assembler added errata NOP
  3295  000EE0                     
  3296                           ;Keypad_Security_Lock.c: 376:     temp_1=keypad();
  3297  000EE0  ECCA  F00C         	call	i2_keypad	;wreg free
  3298  000EE4  C001  F012         	movff	?i2_keypad,i2master_pass_fun@temp_1
  3299  000EE8  C002  F013         	movff	?i2_keypad+1,i2master_pass_fun@temp_1+1
  3300  000EEC                     i2l2557:
  3301  000EEC  FFFF               	dw	65535	; assembler added errata NOP
  3302  000EEE  ECCA  F00C         	call	i2_keypad	;wreg free
  3303  000EF2  5012               	movf	i2master_pass_fun@temp_1^0,w,c
  3304  000EF4  1801               	xorwf	?i2_keypad^0,w,c
  3305  000EF6  E10A               	bnz	i2u239_40
  3306  000EF8  5013               	movf	(i2master_pass_fun@temp_1+1)^0,w,c
  3307  000EFA  1802               	xorwf	(?i2_keypad+1)^0,w,c
  3308  000EFC  B4D8               	btfsc	status,2,c
  3309  000EFE  EF83  F007         	goto	i2u239_41
  3310  000F02  EF86  F007         	goto	i2u239_40
  3311  000F06                     i2u239_41:
  3312  000F06  FFFF               	dw	65535	; assembler added errata NOP
  3313  000F08  EF76  F007         	goto	i2l2557
  3314  000F0C                     i2u239_40:
  3315  000F0C  FFFF               	dw	65535	; assembler added errata NOP
  3316  000F0E                     
  3317                           ;Keypad_Security_Lock.c: 379:     check_m[1]=keypad();
  3318  000F0E  ECCA  F00C         	call	i2_keypad	;wreg free
  3319  000F12  C001  F033         	movff	?i2_keypad,_check_m+2
  3320  000F16  C002  F034         	movff	?i2_keypad+1,_check_m+3
  3321  000F1A                     
  3322                           ;Keypad_Security_Lock.c: 380:     lcddata('*');
  3323  000F1A  0E2A               	movlw	42
  3324  000F1C  EC71  F00F         	call	i2_lcddata
  3325  000F20                     i2l2563:
  3326  000F20  FFFF               	dw	65535	; assembler added errata NOP
  3327  000F22  ECCA  F00C         	call	i2_keypad	;wreg free
  3328  000F26  5033               	movf	(_check_m+2)^0,w,c
  3329  000F28  1801               	xorwf	?i2_keypad^0,w,c
  3330  000F2A  E10A               	bnz	i2u240_40
  3331  000F2C  5034               	movf	(_check_m+3)^0,w,c
  3332  000F2E  1802               	xorwf	(?i2_keypad+1)^0,w,c
  3333  000F30  B4D8               	btfsc	status,2,c
  3334  000F32  EF9D  F007         	goto	i2u240_41
  3335  000F36  EFA0  F007         	goto	i2u240_40
  3336  000F3A                     i2u240_41:
  3337  000F3A  FFFF               	dw	65535	; assembler added errata NOP
  3338  000F3C  EF90  F007         	goto	i2l2563
  3339  000F40                     i2u240_40:
  3340  000F40  FFFF               	dw	65535	; assembler added errata NOP
  3341  000F42                     
  3342                           ;Keypad_Security_Lock.c: 386:     temp_1=keypad();
  3343  000F42  ECCA  F00C         	call	i2_keypad	;wreg free
  3344  000F46  C001  F012         	movff	?i2_keypad,i2master_pass_fun@temp_1
  3345  000F4A  C002  F013         	movff	?i2_keypad+1,i2master_pass_fun@temp_1+1
  3346  000F4E                     i2l2567:
  3347  000F4E  FFFF               	dw	65535	; assembler added errata NOP
  3348  000F50  ECCA  F00C         	call	i2_keypad	;wreg free
  3349  000F54  5012               	movf	i2master_pass_fun@temp_1^0,w,c
  3350  000F56  1801               	xorwf	?i2_keypad^0,w,c
  3351  000F58  E10A               	bnz	i2u241_40
  3352  000F5A  5013               	movf	(i2master_pass_fun@temp_1+1)^0,w,c
  3353  000F5C  1802               	xorwf	(?i2_keypad+1)^0,w,c
  3354  000F5E  B4D8               	btfsc	status,2,c
  3355  000F60  EFB4  F007         	goto	i2u241_41
  3356  000F64  EFB7  F007         	goto	i2u241_40
  3357  000F68                     i2u241_41:
  3358  000F68  FFFF               	dw	65535	; assembler added errata NOP
  3359  000F6A  EFA7  F007         	goto	i2l2567
  3360  000F6E                     i2u241_40:
  3361  000F6E  FFFF               	dw	65535	; assembler added errata NOP
  3362  000F70                     
  3363                           ;Keypad_Security_Lock.c: 389:     check_m[2]=keypad();
  3364  000F70  ECCA  F00C         	call	i2_keypad	;wreg free
  3365  000F74  C001  F035         	movff	?i2_keypad,_check_m+4
  3366  000F78  C002  F036         	movff	?i2_keypad+1,_check_m+5
  3367  000F7C                     
  3368                           ;Keypad_Security_Lock.c: 390:     lcddata('*');
  3369  000F7C  0E2A               	movlw	42
  3370  000F7E  EC71  F00F         	call	i2_lcddata
  3371  000F82                     i2l2573:
  3372  000F82  FFFF               	dw	65535	; assembler added errata NOP
  3373  000F84  ECCA  F00C         	call	i2_keypad	;wreg free
  3374  000F88  5035               	movf	(_check_m+4)^0,w,c
  3375  000F8A  1801               	xorwf	?i2_keypad^0,w,c
  3376  000F8C  E10A               	bnz	i2u242_40
  3377  000F8E  5036               	movf	(_check_m+5)^0,w,c
  3378  000F90  1802               	xorwf	(?i2_keypad+1)^0,w,c
  3379  000F92  B4D8               	btfsc	status,2,c
  3380  000F94  EFCE  F007         	goto	i2u242_41
  3381  000F98  EFD1  F007         	goto	i2u242_40
  3382  000F9C                     i2u242_41:
  3383  000F9C  FFFF               	dw	65535	; assembler added errata NOP
  3384  000F9E  EFC1  F007         	goto	i2l2573
  3385  000FA2                     i2u242_40:
  3386  000FA2  FFFF               	dw	65535	; assembler added errata NOP
  3387  000FA4                     
  3388                           ;Keypad_Security_Lock.c: 396:     temp_1=keypad();
  3389  000FA4  ECCA  F00C         	call	i2_keypad	;wreg free
  3390  000FA8  C001  F012         	movff	?i2_keypad,i2master_pass_fun@temp_1
  3391  000FAC  C002  F013         	movff	?i2_keypad+1,i2master_pass_fun@temp_1+1
  3392  000FB0                     i2l2577:
  3393  000FB0  FFFF               	dw	65535	; assembler added errata NOP
  3394  000FB2  ECCA  F00C         	call	i2_keypad	;wreg free
  3395  000FB6  5012               	movf	i2master_pass_fun@temp_1^0,w,c
  3396  000FB8  1801               	xorwf	?i2_keypad^0,w,c
  3397  000FBA  E10A               	bnz	i2u243_40
  3398  000FBC  5013               	movf	(i2master_pass_fun@temp_1+1)^0,w,c
  3399  000FBE  1802               	xorwf	(?i2_keypad+1)^0,w,c
  3400  000FC0  B4D8               	btfsc	status,2,c
  3401  000FC2  EFE5  F007         	goto	i2u243_41
  3402  000FC6  EFE8  F007         	goto	i2u243_40
  3403  000FCA                     i2u243_41:
  3404  000FCA  FFFF               	dw	65535	; assembler added errata NOP
  3405  000FCC  EFD8  F007         	goto	i2l2577
  3406  000FD0                     i2u243_40:
  3407  000FD0  FFFF               	dw	65535	; assembler added errata NOP
  3408  000FD2                     
  3409                           ;Keypad_Security_Lock.c: 399:     check_m[3]=keypad();
  3410  000FD2  ECCA  F00C         	call	i2_keypad	;wreg free
  3411  000FD6  C001  F037         	movff	?i2_keypad,_check_m+6
  3412  000FDA  C002  F038         	movff	?i2_keypad+1,_check_m+7
  3413  000FDE                     
  3414                           ;Keypad_Security_Lock.c: 400:     lcddata('*');
  3415  000FDE  0E2A               	movlw	42
  3416  000FE0  EC71  F00F         	call	i2_lcddata
  3417  000FE4                     i2l2583:
  3418  000FE4  FFFF               	dw	65535	; assembler added errata NOP
  3419  000FE6  ECCA  F00C         	call	i2_keypad	;wreg free
  3420  000FEA  5037               	movf	(_check_m+6)^0,w,c
  3421  000FEC  1801               	xorwf	?i2_keypad^0,w,c
  3422  000FEE  E10A               	bnz	i2u244_40
  3423  000FF0  5038               	movf	(_check_m+7)^0,w,c
  3424  000FF2  1802               	xorwf	(?i2_keypad+1)^0,w,c
  3425  000FF4  B4D8               	btfsc	status,2,c
  3426  000FF6  EFFF  F007         	goto	i2u244_41
  3427  000FFA  EF02  F008         	goto	i2u244_40
  3428  000FFE                     i2u244_41:
  3429  000FFE  FFFF               	dw	65535	; assembler added errata NOP
  3430  001000  EFF2  F007         	goto	i2l2583
  3431  001004                     i2u244_40:
  3432  001004  FFFF               	dw	65535	; assembler added errata NOP
  3433  001006                     
  3434                           ;Keypad_Security_Lock.c: 406:     temp_1=keypad();
  3435  001006  ECCA  F00C         	call	i2_keypad	;wreg free
  3436  00100A  C001  F012         	movff	?i2_keypad,i2master_pass_fun@temp_1
  3437  00100E  C002  F013         	movff	?i2_keypad+1,i2master_pass_fun@temp_1+1
  3438  001012                     i2l2587:
  3439  001012  FFFF               	dw	65535	; assembler added errata NOP
  3440  001014  ECCA  F00C         	call	i2_keypad	;wreg free
  3441  001018  5012               	movf	i2master_pass_fun@temp_1^0,w,c
  3442  00101A  1801               	xorwf	?i2_keypad^0,w,c
  3443  00101C  E10A               	bnz	i2u245_40
  3444  00101E  5013               	movf	(i2master_pass_fun@temp_1+1)^0,w,c
  3445  001020  1802               	xorwf	(?i2_keypad+1)^0,w,c
  3446  001022  B4D8               	btfsc	status,2,c
  3447  001024  EF16  F008         	goto	i2u245_41
  3448  001028  EF19  F008         	goto	i2u245_40
  3449  00102C                     i2u245_41:
  3450  00102C  FFFF               	dw	65535	; assembler added errata NOP
  3451  00102E  EF09  F008         	goto	i2l2587
  3452  001032                     i2u245_40:
  3453  001032  FFFF               	dw	65535	; assembler added errata NOP
  3454  001034                     
  3455                           ;Keypad_Security_Lock.c: 409:     check_m[4]=keypad();
  3456  001034  ECCA  F00C         	call	i2_keypad	;wreg free
  3457  001038  C001  F039         	movff	?i2_keypad,_check_m+8
  3458  00103C  C002  F03A         	movff	?i2_keypad+1,_check_m+9
  3459  001040                     
  3460                           ;Keypad_Security_Lock.c: 410:     lcddata('*');
  3461  001040  0E2A               	movlw	42
  3462  001042  EC71  F00F         	call	i2_lcddata
  3463  001046                     i2l2593:
  3464  001046  FFFF               	dw	65535	; assembler added errata NOP
  3465  001048  ECCA  F00C         	call	i2_keypad	;wreg free
  3466  00104C  5039               	movf	(_check_m+8)^0,w,c
  3467  00104E  1801               	xorwf	?i2_keypad^0,w,c
  3468  001050  E10A               	bnz	i2u246_40
  3469  001052  503A               	movf	(_check_m+9)^0,w,c
  3470  001054  1802               	xorwf	(?i2_keypad+1)^0,w,c
  3471  001056  B4D8               	btfsc	status,2,c
  3472  001058  EF30  F008         	goto	i2u246_41
  3473  00105C  EF33  F008         	goto	i2u246_40
  3474  001060                     i2u246_41:
  3475  001060  FFFF               	dw	65535	; assembler added errata NOP
  3476  001062  EF23  F008         	goto	i2l2593
  3477  001066                     i2u246_40:
  3478  001066  FFFF               	dw	65535	; assembler added errata NOP
  3479  001068                     
  3480                           ;Keypad_Security_Lock.c: 413:     count=0;
  3481  001068  0E00               	movlw	0
  3482  00106A  6E46               	movwf	(_count+1)^0,c
  3483  00106C  0E00               	movlw	0
  3484  00106E  6E45               	movwf	_count^0,c
  3485  001070                     
  3486                           ;Keypad_Security_Lock.c: 414:     if(check_m[0]==master_pass[0] && check_m[1]==master_pa
      +                          ss[1] && check_m[2]==master_pass[2] && check_m[3]==master_pass[3] && check_m[4]==master_
      +                          pass[4]){
  3487  001070  0E01               	movlw	low _master_pass
  3488  001072  6EF6               	movwf	tblptrl,c
  3489  001074                     	if	0	;There is only one active tblptr byte
  3490  001074                     	endif
  3491  001074                     	if	0	;There are less than 3 active tblptr bytes
  3492  001074                     	endif
  3493  001074  0009               	tblrd		*+
  3494  001076  FFFF               	dw	65535	; errata NOP
  3495  001078  50F5               	movf	tablat,w,c
  3496  00107A  1831               	xorwf	_check_m^0,w,c
  3497  00107C  E109               	bnz	i2u247_41
  3498  00107E  0009               	tblrd		*+
  3499  001080  FFFF               	dw	65535	; errata NOP
  3500  001082  50F5               	movf	tablat,w,c
  3501  001084  1832               	xorwf	(_check_m+1)^0,w,c
  3502  001086  A4D8               	btfss	status,2,c
  3503  001088  EF48  F008         	goto	i2u247_41
  3504  00108C  EF4B  F008         	goto	i2u247_40
  3505  001090                     i2u247_41:
  3506  001090  FFFF               	dw	65535	; assembler added errata NOP
  3507  001092  EFAD  F008         	goto	i2l2615
  3508  001096                     i2u247_40:
  3509  001096  FFFF               	dw	65535	; assembler added errata NOP
  3510  001098  0E03               	movlw	low (_master_pass+2)
  3511  00109A  6EF6               	movwf	tblptrl,c
  3512  00109C  0E06               	movlw	high (_master_pass+2)
  3513  00109E  6EF7               	movwf	tblptrh,c
  3514  0010A0                     	if	0	;tblptru may be non-zero
  3515  0010A0                     	endif
  3516  0010A0                     	if	0	;tblptru may be non-zero
  3517  0010A0                     	endif
  3518  0010A0  0009               	tblrd		*+
  3519  0010A2  FFFF               	dw	65535	; errata NOP
  3520  0010A4  50F5               	movf	tablat,w,c
  3521  0010A6  1833               	xorwf	(_check_m+2)^0,w,c
  3522  0010A8  E109               	bnz	i2u248_41
  3523  0010AA  0009               	tblrd		*+
  3524  0010AC  FFFF               	dw	65535	; errata NOP
  3525  0010AE  50F5               	movf	tablat,w,c
  3526  0010B0  1834               	xorwf	(_check_m+3)^0,w,c
  3527  0010B2  A4D8               	btfss	status,2,c
  3528  0010B4  EF5E  F008         	goto	i2u248_41
  3529  0010B8  EF61  F008         	goto	i2u248_40
  3530  0010BC                     i2u248_41:
  3531  0010BC  FFFF               	dw	65535	; assembler added errata NOP
  3532  0010BE  EFAD  F008         	goto	i2l2615
  3533  0010C2                     i2u248_40:
  3534  0010C2  FFFF               	dw	65535	; assembler added errata NOP
  3535  0010C4  0E05               	movlw	low (_master_pass+4)
  3536  0010C6  6EF6               	movwf	tblptrl,c
  3537  0010C8  0E06               	movlw	high (_master_pass+4)
  3538  0010CA  6EF7               	movwf	tblptrh,c
  3539  0010CC                     	if	0	;tblptru may be non-zero
  3540  0010CC                     	endif
  3541  0010CC                     	if	0	;tblptru may be non-zero
  3542  0010CC                     	endif
  3543  0010CC  0009               	tblrd		*+
  3544  0010CE  FFFF               	dw	65535	; errata NOP
  3545  0010D0  50F5               	movf	tablat,w,c
  3546  0010D2  1835               	xorwf	(_check_m+4)^0,w,c
  3547  0010D4  E109               	bnz	i2u249_41
  3548  0010D6  0009               	tblrd		*+
  3549  0010D8  FFFF               	dw	65535	; errata NOP
  3550  0010DA  50F5               	movf	tablat,w,c
  3551  0010DC  1836               	xorwf	(_check_m+5)^0,w,c
  3552  0010DE  A4D8               	btfss	status,2,c
  3553  0010E0  EF74  F008         	goto	i2u249_41
  3554  0010E4  EF77  F008         	goto	i2u249_40
  3555  0010E8                     i2u249_41:
  3556  0010E8  FFFF               	dw	65535	; assembler added errata NOP
  3557  0010EA  EFAD  F008         	goto	i2l2615
  3558  0010EE                     i2u249_40:
  3559  0010EE  FFFF               	dw	65535	; assembler added errata NOP
  3560  0010F0  0E07               	movlw	low (_master_pass+6)
  3561  0010F2  6EF6               	movwf	tblptrl,c
  3562  0010F4  0E06               	movlw	high (_master_pass+6)
  3563  0010F6  6EF7               	movwf	tblptrh,c
  3564  0010F8                     	if	0	;tblptru may be non-zero
  3565  0010F8                     	endif
  3566  0010F8                     	if	0	;tblptru may be non-zero
  3567  0010F8                     	endif
  3568  0010F8  0009               	tblrd		*+
  3569  0010FA  FFFF               	dw	65535	; errata NOP
  3570  0010FC  50F5               	movf	tablat,w,c
  3571  0010FE  1837               	xorwf	(_check_m+6)^0,w,c
  3572  001100  E109               	bnz	i2u250_41
  3573  001102  0009               	tblrd		*+
  3574  001104  FFFF               	dw	65535	; errata NOP
  3575  001106  50F5               	movf	tablat,w,c
  3576  001108  1838               	xorwf	(_check_m+7)^0,w,c
  3577  00110A  A4D8               	btfss	status,2,c
  3578  00110C  EF8A  F008         	goto	i2u250_41
  3579  001110  EF8D  F008         	goto	i2u250_40
  3580  001114                     i2u250_41:
  3581  001114  FFFF               	dw	65535	; assembler added errata NOP
  3582  001116  EFAD  F008         	goto	i2l2615
  3583  00111A                     i2u250_40:
  3584  00111A  FFFF               	dw	65535	; assembler added errata NOP
  3585  00111C  0E09               	movlw	low (_master_pass+8)
  3586  00111E  6EF6               	movwf	tblptrl,c
  3587  001120  0E06               	movlw	high (_master_pass+8)
  3588  001122  6EF7               	movwf	tblptrh,c
  3589  001124                     	if	0	;tblptru may be non-zero
  3590  001124                     	endif
  3591  001124                     	if	0	;tblptru may be non-zero
  3592  001124                     	endif
  3593  001124  0009               	tblrd		*+
  3594  001126  FFFF               	dw	65535	; errata NOP
  3595  001128  50F5               	movf	tablat,w,c
  3596  00112A  1839               	xorwf	(_check_m+8)^0,w,c
  3597  00112C  E109               	bnz	i2u251_41
  3598  00112E  0009               	tblrd		*+
  3599  001130  FFFF               	dw	65535	; errata NOP
  3600  001132  50F5               	movf	tablat,w,c
  3601  001134  183A               	xorwf	(_check_m+9)^0,w,c
  3602  001136  A4D8               	btfss	status,2,c
  3603  001138  EFA0  F008         	goto	i2u251_41
  3604  00113C  EFA3  F008         	goto	i2u251_40
  3605  001140                     i2u251_41:
  3606  001140  FFFF               	dw	65535	; assembler added errata NOP
  3607  001142  EFAD  F008         	goto	i2l2615
  3608  001146                     i2u251_40:
  3609  001146  FFFF               	dw	65535	; assembler added errata NOP
  3610  001148                     
  3611                           ;Keypad_Security_Lock.c: 415:         PORTAbits.RA1=1;
  3612  001148  8280               	bsf	128,1,c	;volatile
  3613  00114A                     
  3614                           ;Keypad_Security_Lock.c: 416:         lcdcmd(0x01);
  3615  00114A  0E01               	movlw	1
  3616  00114C  EC61  F00F         	call	i2_lcdcmd
  3617  001150                     
  3618                           ;Keypad_Security_Lock.c: 417:         change_pass();
  3619  001150  EC35  F00A         	call	i2_change_pass	;wreg free
  3620  001154                     
  3621                           ;Keypad_Security_Lock.c: 419:         PORTAbits.RA1=0;
  3622  001154  9280               	bcf	128,1,c	;volatile
  3623                           
  3624                           ;Keypad_Security_Lock.c: 420:     }
  3625  001156  EFD8  F008         	goto	i2l245
  3626  00115A                     i2l2615:
  3627  00115A  FFFF               	dw	65535	; assembler added errata NOP
  3628                           
  3629                           ;Keypad_Security_Lock.c: 422:         lcdcmd(0x01);
  3630  00115C  0E01               	movlw	1
  3631  00115E  EC61  F00F         	call	i2_lcdcmd
  3632  001162                     
  3633                           ;Keypad_Security_Lock.c: 423:         PORTAbits.RA2=1;
  3634  001162  8480               	bsf	128,2,c	;volatile
  3635                           
  3636                           ;Keypad_Security_Lock.c: 424:         lcdcmd(0x80);
  3637  001164  0E80               	movlw	128
  3638  001166  EC61  F00F         	call	i2_lcdcmd
  3639  00116A                     
  3640                           ;Keypad_Security_Lock.c: 425:         lcd_string("WRONG MASTER PWD",16);
  3641  00116A  0E1C               	movlw	low STR_10
  3642  00116C  6E09               	movwf	i2lcd_string@str^0,c
  3643  00116E  0E06               	movlw	high STR_10
  3644  001170  6E0A               	movwf	(i2lcd_string@str+1)^0,c
  3645  001172  0E10               	movlw	16
  3646  001174  6E0B               	movwf	i2lcd_string@num^0,c
  3647  001176  ECCD  F00E         	call	i2_lcd_string	;wreg free
  3648  00117A                     
  3649                           ;Keypad_Security_Lock.c: 426:         delay(500);
  3650  00117A  0E01               	movlw	1
  3651  00117C  6E02               	movwf	(i2delay@ms+1)^0,c
  3652  00117E  0EF4               	movlw	244
  3653  001180  6E01               	movwf	i2delay@ms^0,c
  3654  001182  EC3F  F00E         	call	i2_delay	;wreg free
  3655  001186                     
  3656                           ;Keypad_Security_Lock.c: 427:         lcdcmd(0xC0);
  3657  001186  0EC0               	movlw	192
  3658  001188  EC61  F00F         	call	i2_lcdcmd
  3659  00118C                     
  3660                           ;Keypad_Security_Lock.c: 428:         lcd_string("TRY AGAIN",9);
  3661  00118C  0EA8               	movlw	low STR_11
  3662  00118E  6E09               	movwf	i2lcd_string@str^0,c
  3663  001190  0E06               	movlw	high STR_11
  3664  001192  6E0A               	movwf	(i2lcd_string@str+1)^0,c
  3665  001194  0E09               	movlw	9
  3666  001196  6E0B               	movwf	i2lcd_string@num^0,c
  3667  001198  ECCD  F00E         	call	i2_lcd_string	;wreg free
  3668                           
  3669                           ;Keypad_Security_Lock.c: 429:         delay(500);
  3670  00119C  0E01               	movlw	1
  3671  00119E  6E02               	movwf	(i2delay@ms+1)^0,c
  3672  0011A0  0EF4               	movlw	244
  3673  0011A2  6E01               	movwf	i2delay@ms^0,c
  3674  0011A4  EC3F  F00E         	call	i2_delay	;wreg free
  3675                           
  3676                           ;Keypad_Security_Lock.c: 430:         lcdcmd(0x01);
  3677  0011A8  0E01               	movlw	1
  3678  0011AA  EC61  F00F         	call	i2_lcdcmd
  3679  0011AE                     
  3680                           ;Keypad_Security_Lock.c: 431:         INT0IF=1;
  3681  0011AE  82F2               	bsf	4082,1,c	;volatile
  3682  0011B0                     i2l245:
  3683  0011B0  FFFF               	dw	65535	; assembler added errata NOP
  3684  0011B2  0012               	return		;funcret
  3685  0011B4  FFFF               	dw	65535	; errata NOP
  3686  0011B6                     __end_ofi2_master_pass_fun:
  3687                           	opt callstack 0
  3688                           
  3689 ;; *************** function i2_change_pass *****************
  3690 ;; Defined at:
  3691 ;;		line 439 in file "Keypad_Security_Lock.c"
  3692 ;; Parameters:    Size  Location     Type
  3693 ;;		None
  3694 ;; Auto vars:     Size  Location     Type
  3695 ;;  change_pass     2   15[COMRAM] int 
  3696 ;; Return value:  Size  Location     Type
  3697 ;;                  1    wreg      void 
  3698 ;; Registers used:
  3699 ;;		wreg, status,2, status,0, tblptrl, tblptrh, tblptru, cstack
  3700 ;; Tracked objects:
  3701 ;;		On entry : 0/0
  3702 ;;		On exit  : 0/0
  3703 ;;		Unchanged: 0/0
  3704 ;; Data sizes:     COMRAM   BANK0   BANK1   BANK2   BANK3   BANK4   BANK5
  3705 ;;      Params:         0       0       0       0       0       0       0
  3706 ;;      Locals:         2       0       0       0       0       0       0
  3707 ;;      Temps:          0       0       0       0       0       0       0
  3708 ;;      Totals:         2       0       0       0       0       0       0
  3709 ;;Total ram usage:        2 bytes
  3710 ;; Hardware stack levels used:    1
  3711 ;; Hardware stack levels required when called:    3
  3712 ;; This function calls:
  3713 ;;		i2_EE_WRT
  3714 ;;		i2_delay
  3715 ;;		i2_keypad
  3716 ;;		i2_lcd_string
  3717 ;;		i2_lcdcmd
  3718 ;;		i2_lcddata
  3719 ;; This function is called by:
  3720 ;;		i2_master_pass_fun
  3721 ;; This function uses a non-reentrant model
  3722 ;;
  3723                           
  3724                           	psect	text15
  3725  00146A                     __ptext15:
  3726                           	opt callstack 0
  3727  00146A                     i2_change_pass:
  3728                           	opt callstack 0
  3729  00146A  FFFF               	dw	65535	; assembler added errata NOP
  3730  00146C                     
  3731                           ;Keypad_Security_Lock.c: 441:     lcdcmd(0x80);
  3732  00146C  0E80               	movlw	128
  3733  00146E  EC61  F00F         	call	i2_lcdcmd
  3734  001472                     
  3735                           ;Keypad_Security_Lock.c: 442:     lcd_string("ENTER NEW PASS",14);
  3736  001472  0E7E               	movlw	low STR_12
  3737  001474  6E09               	movwf	i2lcd_string@str^0,c
  3738  001476  0E06               	movlw	high STR_12
  3739  001478  6E0A               	movwf	(i2lcd_string@str+1)^0,c
  3740  00147A  0E0E               	movlw	14
  3741  00147C  6E0B               	movwf	i2lcd_string@num^0,c
  3742  00147E  ECCD  F00E         	call	i2_lcd_string	;wreg free
  3743  001482                     
  3744                           ;Keypad_Security_Lock.c: 443:     lcdcmd(0xC0);
  3745  001482  0EC0               	movlw	192
  3746  001484  EC61  F00F         	call	i2_lcdcmd
  3747  001488                     
  3748                           ;Keypad_Security_Lock.c: 448:     int temp_1=keypad();
  3749  001488  ECCA  F00C         	call	i2_keypad	;wreg free
  3750  00148C  C001  F010         	movff	?i2_keypad,i2change_pass@temp_1
  3751  001490  C002  F011         	movff	?i2_keypad+1,i2change_pass@temp_1+1
  3752  001494                     i2l2309:
  3753  001494  FFFF               	dw	65535	; assembler added errata NOP
  3754  001496  ECCA  F00C         	call	i2_keypad	;wreg free
  3755  00149A  5010               	movf	i2change_pass@temp_1^0,w,c
  3756  00149C  1801               	xorwf	?i2_keypad^0,w,c
  3757  00149E  E10A               	bnz	i2u207_40
  3758  0014A0  5011               	movf	(i2change_pass@temp_1+1)^0,w,c
  3759  0014A2  1802               	xorwf	(?i2_keypad+1)^0,w,c
  3760  0014A4  B4D8               	btfsc	status,2,c
  3761  0014A6  EF57  F00A         	goto	i2u207_41
  3762  0014AA  EF5A  F00A         	goto	i2u207_40
  3763  0014AE                     i2u207_41:
  3764  0014AE  FFFF               	dw	65535	; assembler added errata NOP
  3765  0014B0  EF4A  F00A         	goto	i2l2309
  3766  0014B4                     i2u207_40:
  3767  0014B4  FFFF               	dw	65535	; assembler added errata NOP
  3768  0014B6                     
  3769                           ;Keypad_Security_Lock.c: 453:     check[0]=keypad();
  3770  0014B6  ECCA  F00C         	call	i2_keypad	;wreg free
  3771  0014BA  C001  F03B         	movff	?i2_keypad,_check
  3772  0014BE  C002  F03C         	movff	?i2_keypad+1,_check+1
  3773  0014C2                     
  3774                           ;Keypad_Security_Lock.c: 454:     EEADR=0x0;
  3775  0014C2  0E00               	movlw	0
  3776  0014C4  6EA9               	movwf	169,c	;volatile
  3777  0014C6                     
  3778                           ;Keypad_Security_Lock.c: 455:     EEDATA=check[0];
  3779  0014C6  C03B  FFA8         	movff	_check,4008	;volatile
  3780  0014CA                     
  3781                           ;Keypad_Security_Lock.c: 456:     EE_WRT();
  3782  0014CA  EC2B  F00F         	call	i2_EE_WRT	;wreg free
  3783  0014CE                     
  3784                           ;Keypad_Security_Lock.c: 457:     lcddata('*');
  3785  0014CE  0E2A               	movlw	42
  3786  0014D0  EC71  F00F         	call	i2_lcddata
  3787  0014D4                     i2l2321:
  3788  0014D4  FFFF               	dw	65535	; assembler added errata NOP
  3789  0014D6  ECCA  F00C         	call	i2_keypad	;wreg free
  3790  0014DA  503B               	movf	_check^0,w,c
  3791  0014DC  1801               	xorwf	?i2_keypad^0,w,c
  3792  0014DE  E10A               	bnz	i2u208_40
  3793  0014E0  503C               	movf	(_check+1)^0,w,c
  3794  0014E2  1802               	xorwf	(?i2_keypad+1)^0,w,c
  3795  0014E4  B4D8               	btfsc	status,2,c
  3796  0014E6  EF77  F00A         	goto	i2u208_41
  3797  0014EA  EF7A  F00A         	goto	i2u208_40
  3798  0014EE                     i2u208_41:
  3799  0014EE  FFFF               	dw	65535	; assembler added errata NOP
  3800  0014F0  EF6A  F00A         	goto	i2l2321
  3801  0014F4                     i2u208_40:
  3802  0014F4  FFFF               	dw	65535	; assembler added errata NOP
  3803  0014F6                     
  3804                           ;Keypad_Security_Lock.c: 463:     temp_1=keypad();
  3805  0014F6  ECCA  F00C         	call	i2_keypad	;wreg free
  3806  0014FA  C001  F010         	movff	?i2_keypad,i2change_pass@temp_1
  3807  0014FE  C002  F011         	movff	?i2_keypad+1,i2change_pass@temp_1+1
  3808  001502                     i2l2325:
  3809  001502  FFFF               	dw	65535	; assembler added errata NOP
  3810  001504  ECCA  F00C         	call	i2_keypad	;wreg free
  3811  001508  5010               	movf	i2change_pass@temp_1^0,w,c
  3812  00150A  1801               	xorwf	?i2_keypad^0,w,c
  3813  00150C  E10A               	bnz	i2u209_40
  3814  00150E  5011               	movf	(i2change_pass@temp_1+1)^0,w,c
  3815  001510  1802               	xorwf	(?i2_keypad+1)^0,w,c
  3816  001512  B4D8               	btfsc	status,2,c
  3817  001514  EF8E  F00A         	goto	i2u209_41
  3818  001518  EF91  F00A         	goto	i2u209_40
  3819  00151C                     i2u209_41:
  3820  00151C  FFFF               	dw	65535	; assembler added errata NOP
  3821  00151E  EF81  F00A         	goto	i2l2325
  3822  001522                     i2u209_40:
  3823  001522  FFFF               	dw	65535	; assembler added errata NOP
  3824  001524                     
  3825                           ;Keypad_Security_Lock.c: 466:     check[1]=keypad();
  3826  001524  ECCA  F00C         	call	i2_keypad	;wreg free
  3827  001528  C001  F03D         	movff	?i2_keypad,_check+2
  3828  00152C  C002  F03E         	movff	?i2_keypad+1,_check+3
  3829  001530                     
  3830                           ;Keypad_Security_Lock.c: 467:     EEADR=0x1;
  3831  001530  0E01               	movlw	1
  3832  001532  6EA9               	movwf	169,c	;volatile
  3833  001534                     
  3834                           ;Keypad_Security_Lock.c: 468:     EEDATA=check[1];
  3835  001534  C03D  FFA8         	movff	_check+2,4008	;volatile
  3836  001538                     
  3837                           ;Keypad_Security_Lock.c: 469:     EE_WRT();
  3838  001538  EC2B  F00F         	call	i2_EE_WRT	;wreg free
  3839  00153C                     
  3840                           ;Keypad_Security_Lock.c: 470:     lcddata('*');
  3841  00153C  0E2A               	movlw	42
  3842  00153E  EC71  F00F         	call	i2_lcddata
  3843  001542                     i2l2337:
  3844  001542  FFFF               	dw	65535	; assembler added errata NOP
  3845  001544  ECCA  F00C         	call	i2_keypad	;wreg free
  3846  001548  503D               	movf	(_check+2)^0,w,c
  3847  00154A  1801               	xorwf	?i2_keypad^0,w,c
  3848  00154C  E10A               	bnz	i2u210_40
  3849  00154E  503E               	movf	(_check+3)^0,w,c
  3850  001550  1802               	xorwf	(?i2_keypad+1)^0,w,c
  3851  001552  B4D8               	btfsc	status,2,c
  3852  001554  EFAE  F00A         	goto	i2u210_41
  3853  001558  EFB1  F00A         	goto	i2u210_40
  3854  00155C                     i2u210_41:
  3855  00155C  FFFF               	dw	65535	; assembler added errata NOP
  3856  00155E  EFA1  F00A         	goto	i2l2337
  3857  001562                     i2u210_40:
  3858  001562  FFFF               	dw	65535	; assembler added errata NOP
  3859  001564                     
  3860                           ;Keypad_Security_Lock.c: 476:     temp_1=keypad();
  3861  001564  ECCA  F00C         	call	i2_keypad	;wreg free
  3862  001568  C001  F010         	movff	?i2_keypad,i2change_pass@temp_1
  3863  00156C  C002  F011         	movff	?i2_keypad+1,i2change_pass@temp_1+1
  3864  001570                     i2l2341:
  3865  001570  FFFF               	dw	65535	; assembler added errata NOP
  3866  001572  ECCA  F00C         	call	i2_keypad	;wreg free
  3867  001576  5010               	movf	i2change_pass@temp_1^0,w,c
  3868  001578  1801               	xorwf	?i2_keypad^0,w,c
  3869  00157A  E10A               	bnz	i2u211_40
  3870  00157C  5011               	movf	(i2change_pass@temp_1+1)^0,w,c
  3871  00157E  1802               	xorwf	(?i2_keypad+1)^0,w,c
  3872  001580  B4D8               	btfsc	status,2,c
  3873  001582  EFC5  F00A         	goto	i2u211_41
  3874  001586  EFC8  F00A         	goto	i2u211_40
  3875  00158A                     i2u211_41:
  3876  00158A  FFFF               	dw	65535	; assembler added errata NOP
  3877  00158C  EFB8  F00A         	goto	i2l2341
  3878  001590                     i2u211_40:
  3879  001590  FFFF               	dw	65535	; assembler added errata NOP
  3880  001592                     
  3881                           ;Keypad_Security_Lock.c: 479:     check[2]=keypad();
  3882  001592  ECCA  F00C         	call	i2_keypad	;wreg free
  3883  001596  C001  F03F         	movff	?i2_keypad,_check+4
  3884  00159A  C002  F040         	movff	?i2_keypad+1,_check+5
  3885  00159E                     
  3886                           ;Keypad_Security_Lock.c: 480:     EEADR=0x2;
  3887  00159E  0E02               	movlw	2
  3888  0015A0  6EA9               	movwf	169,c	;volatile
  3889  0015A2                     
  3890                           ;Keypad_Security_Lock.c: 481:     EEDATA=check[2];
  3891  0015A2  C03F  FFA8         	movff	_check+4,4008	;volatile
  3892  0015A6                     
  3893                           ;Keypad_Security_Lock.c: 482:     EE_WRT();
  3894  0015A6  EC2B  F00F         	call	i2_EE_WRT	;wreg free
  3895  0015AA                     
  3896                           ;Keypad_Security_Lock.c: 483:     lcddata('*');
  3897  0015AA  0E2A               	movlw	42
  3898  0015AC  EC71  F00F         	call	i2_lcddata
  3899  0015B0                     i2l2353:
  3900  0015B0  FFFF               	dw	65535	; assembler added errata NOP
  3901  0015B2  ECCA  F00C         	call	i2_keypad	;wreg free
  3902  0015B6  503F               	movf	(_check+4)^0,w,c
  3903  0015B8  1801               	xorwf	?i2_keypad^0,w,c
  3904  0015BA  E10A               	bnz	i2u212_40
  3905  0015BC  5040               	movf	(_check+5)^0,w,c
  3906  0015BE  1802               	xorwf	(?i2_keypad+1)^0,w,c
  3907  0015C0  B4D8               	btfsc	status,2,c
  3908  0015C2  EFE5  F00A         	goto	i2u212_41
  3909  0015C6  EFE8  F00A         	goto	i2u212_40
  3910  0015CA                     i2u212_41:
  3911  0015CA  FFFF               	dw	65535	; assembler added errata NOP
  3912  0015CC  EFD8  F00A         	goto	i2l2353
  3913  0015D0                     i2u212_40:
  3914  0015D0  FFFF               	dw	65535	; assembler added errata NOP
  3915  0015D2                     
  3916                           ;Keypad_Security_Lock.c: 489:     temp_1=keypad();
  3917  0015D2  ECCA  F00C         	call	i2_keypad	;wreg free
  3918  0015D6  C001  F010         	movff	?i2_keypad,i2change_pass@temp_1
  3919  0015DA  C002  F011         	movff	?i2_keypad+1,i2change_pass@temp_1+1
  3920  0015DE                     i2l2357:
  3921  0015DE  FFFF               	dw	65535	; assembler added errata NOP
  3922  0015E0  ECCA  F00C         	call	i2_keypad	;wreg free
  3923  0015E4  5010               	movf	i2change_pass@temp_1^0,w,c
  3924  0015E6  1801               	xorwf	?i2_keypad^0,w,c
  3925  0015E8  E10A               	bnz	i2u213_40
  3926  0015EA  5011               	movf	(i2change_pass@temp_1+1)^0,w,c
  3927  0015EC  1802               	xorwf	(?i2_keypad+1)^0,w,c
  3928  0015EE  B4D8               	btfsc	status,2,c
  3929  0015F0  EFFC  F00A         	goto	i2u213_41
  3930  0015F4  EFFF  F00A         	goto	i2u213_40
  3931  0015F8                     i2u213_41:
  3932  0015F8  FFFF               	dw	65535	; assembler added errata NOP
  3933  0015FA  EFEF  F00A         	goto	i2l2357
  3934  0015FE                     i2u213_40:
  3935  0015FE  FFFF               	dw	65535	; assembler added errata NOP
  3936  001600                     
  3937                           ;Keypad_Security_Lock.c: 492:     check[3]=keypad();
  3938  001600  ECCA  F00C         	call	i2_keypad	;wreg free
  3939  001604  C001  F041         	movff	?i2_keypad,_check+6
  3940  001608  C002  F042         	movff	?i2_keypad+1,_check+7
  3941  00160C                     
  3942                           ;Keypad_Security_Lock.c: 493:     EEADR=0x3;
  3943  00160C  0E03               	movlw	3
  3944  00160E  6EA9               	movwf	169,c	;volatile
  3945  001610                     
  3946                           ;Keypad_Security_Lock.c: 494:     EEDATA=check[3];
  3947  001610  C041  FFA8         	movff	_check+6,4008	;volatile
  3948  001614                     
  3949                           ;Keypad_Security_Lock.c: 495:     EE_WRT();
  3950  001614  EC2B  F00F         	call	i2_EE_WRT	;wreg free
  3951  001618                     
  3952                           ;Keypad_Security_Lock.c: 496:     lcddata('*');
  3953  001618  0E2A               	movlw	42
  3954  00161A  EC71  F00F         	call	i2_lcddata
  3955  00161E                     i2l2369:
  3956  00161E  FFFF               	dw	65535	; assembler added errata NOP
  3957  001620  ECCA  F00C         	call	i2_keypad	;wreg free
  3958  001624  5041               	movf	(_check+6)^0,w,c
  3959  001626  1801               	xorwf	?i2_keypad^0,w,c
  3960  001628  E10A               	bnz	i2u214_40
  3961  00162A  5042               	movf	(_check+7)^0,w,c
  3962  00162C  1802               	xorwf	(?i2_keypad+1)^0,w,c
  3963  00162E  B4D8               	btfsc	status,2,c
  3964  001630  EF1C  F00B         	goto	i2u214_41
  3965  001634  EF1F  F00B         	goto	i2u214_40
  3966  001638                     i2u214_41:
  3967  001638  FFFF               	dw	65535	; assembler added errata NOP
  3968  00163A  EF0F  F00B         	goto	i2l2369
  3969  00163E                     i2u214_40:
  3970  00163E  FFFF               	dw	65535	; assembler added errata NOP
  3971  001640                     
  3972                           ;Keypad_Security_Lock.c: 502:     temp_1=keypad();
  3973  001640  ECCA  F00C         	call	i2_keypad	;wreg free
  3974  001644  C001  F010         	movff	?i2_keypad,i2change_pass@temp_1
  3975  001648  C002  F011         	movff	?i2_keypad+1,i2change_pass@temp_1+1
  3976  00164C                     i2l2373:
  3977  00164C  FFFF               	dw	65535	; assembler added errata NOP
  3978  00164E  ECCA  F00C         	call	i2_keypad	;wreg free
  3979  001652  5010               	movf	i2change_pass@temp_1^0,w,c
  3980  001654  1801               	xorwf	?i2_keypad^0,w,c
  3981  001656  E10A               	bnz	i2u215_40
  3982  001658  5011               	movf	(i2change_pass@temp_1+1)^0,w,c
  3983  00165A  1802               	xorwf	(?i2_keypad+1)^0,w,c
  3984  00165C  B4D8               	btfsc	status,2,c
  3985  00165E  EF33  F00B         	goto	i2u215_41
  3986  001662  EF36  F00B         	goto	i2u215_40
  3987  001666                     i2u215_41:
  3988  001666  FFFF               	dw	65535	; assembler added errata NOP
  3989  001668  EF26  F00B         	goto	i2l2373
  3990  00166C                     i2u215_40:
  3991  00166C  FFFF               	dw	65535	; assembler added errata NOP
  3992  00166E                     
  3993                           ;Keypad_Security_Lock.c: 505:     check[4]=keypad();
  3994  00166E  ECCA  F00C         	call	i2_keypad	;wreg free
  3995  001672  C001  F043         	movff	?i2_keypad,_check+8
  3996  001676  C002  F044         	movff	?i2_keypad+1,_check+9
  3997  00167A                     
  3998                           ;Keypad_Security_Lock.c: 506:     EEADR=0x4;
  3999  00167A  0E04               	movlw	4
  4000  00167C  6EA9               	movwf	169,c	;volatile
  4001  00167E                     
  4002                           ;Keypad_Security_Lock.c: 507:     EEDATA=check[4];
  4003  00167E  C043  FFA8         	movff	_check+8,4008	;volatile
  4004  001682                     
  4005                           ;Keypad_Security_Lock.c: 508:     EE_WRT();
  4006  001682  EC2B  F00F         	call	i2_EE_WRT	;wreg free
  4007  001686                     
  4008                           ;Keypad_Security_Lock.c: 509:     lcddata('*');
  4009  001686  0E2A               	movlw	42
  4010  001688  EC71  F00F         	call	i2_lcddata
  4011  00168C                     i2l2385:
  4012  00168C  FFFF               	dw	65535	; assembler added errata NOP
  4013  00168E  ECCA  F00C         	call	i2_keypad	;wreg free
  4014  001692  5043               	movf	(_check+8)^0,w,c
  4015  001694  1801               	xorwf	?i2_keypad^0,w,c
  4016  001696  E10A               	bnz	i2u216_40
  4017  001698  5044               	movf	(_check+9)^0,w,c
  4018  00169A  1802               	xorwf	(?i2_keypad+1)^0,w,c
  4019  00169C  B4D8               	btfsc	status,2,c
  4020  00169E  EF53  F00B         	goto	i2u216_41
  4021  0016A2  EF56  F00B         	goto	i2u216_40
  4022  0016A6                     i2u216_41:
  4023  0016A6  FFFF               	dw	65535	; assembler added errata NOP
  4024  0016A8  EF46  F00B         	goto	i2l2385
  4025  0016AC                     i2u216_40:
  4026  0016AC  FFFF               	dw	65535	; assembler added errata NOP
  4027  0016AE                     
  4028                           ;Keypad_Security_Lock.c: 511:     EECON1bits.WREN=0;
  4029  0016AE  94A6               	bcf	166,2,c	;volsfr
  4030  0016B0                     
  4031                           ;Keypad_Security_Lock.c: 513:     lcdcmd(0x01);
  4032  0016B0  0E01               	movlw	1
  4033  0016B2  EC61  F00F         	call	i2_lcdcmd
  4034                           
  4035                           ;Keypad_Security_Lock.c: 514:     lcdcmd(0x80);
  4036  0016B6  0E80               	movlw	128
  4037  0016B8  EC61  F00F         	call	i2_lcdcmd
  4038  0016BC                     
  4039                           ;Keypad_Security_Lock.c: 515:     lcd_string("PASSWORD CHANGED",16);
  4040  0016BC  0E0B               	movlw	low STR_13
  4041  0016BE  6E09               	movwf	i2lcd_string@str^0,c
  4042  0016C0  0E06               	movlw	high STR_13
  4043  0016C2  6E0A               	movwf	(i2lcd_string@str+1)^0,c
  4044  0016C4  0E10               	movlw	16
  4045  0016C6  6E0B               	movwf	i2lcd_string@num^0,c
  4046  0016C8  ECCD  F00E         	call	i2_lcd_string	;wreg free
  4047  0016CC                     
  4048                           ;Keypad_Security_Lock.c: 516:     lcdcmd(0xC0);
  4049  0016CC  0EC0               	movlw	192
  4050  0016CE  EC61  F00F         	call	i2_lcdcmd
  4051                           
  4052                           ;Keypad_Security_Lock.c: 517:     lcd_string("SUCCESSFULLY",12);
  4053  0016D2  0E9B               	movlw	low STR_14
  4054  0016D4  6E09               	movwf	i2lcd_string@str^0,c
  4055  0016D6  0E06               	movlw	high STR_14
  4056  0016D8  6E0A               	movwf	(i2lcd_string@str+1)^0,c
  4057  0016DA  0E0C               	movlw	12
  4058  0016DC  6E0B               	movwf	i2lcd_string@num^0,c
  4059  0016DE  ECCD  F00E         	call	i2_lcd_string	;wreg free
  4060  0016E2                     
  4061                           ;Keypad_Security_Lock.c: 518:     delay(500);
  4062  0016E2  0E01               	movlw	1
  4063  0016E4  6E02               	movwf	(i2delay@ms+1)^0,c
  4064  0016E6  0EF4               	movlw	244
  4065  0016E8  6E01               	movwf	i2delay@ms^0,c
  4066  0016EA  EC3F  F00E         	call	i2_delay	;wreg free
  4067  0016EE                     
  4068                           ;Keypad_Security_Lock.c: 519:     lcdcmd(0x01);
  4069  0016EE  0E01               	movlw	1
  4070  0016F0  EC61  F00F         	call	i2_lcdcmd
  4071  0016F4                     
  4072                           ;Keypad_Security_Lock.c: 520:     lcdcmd(0x80);
  4073  0016F4  0E80               	movlw	128
  4074  0016F6  EC61  F00F         	call	i2_lcdcmd
  4075  0016FA                     
  4076                           ;Keypad_Security_Lock.c: 521:     lcd_string("ENTER PASSWORD",14);
  4077  0016FA  0E6F               	movlw	low STR_1
  4078  0016FC  6E09               	movwf	i2lcd_string@str^0,c
  4079  0016FE  0E06               	movlw	high STR_1
  4080  001700  6E0A               	movwf	(i2lcd_string@str+1)^0,c
  4081  001702  0E0E               	movlw	14
  4082  001704  6E0B               	movwf	i2lcd_string@num^0,c
  4083  001706  ECCD  F00E         	call	i2_lcd_string	;wreg free
  4084                           
  4085                           ;Keypad_Security_Lock.c: 522:     lcdcmd(0xC0);
  4086  00170A  0EC0               	movlw	192
  4087  00170C  EC61  F00F         	call	i2_lcdcmd
  4088  001710  0012               	return		;funcret
  4089  001712  FFFF               	dw	65535	; errata NOP
  4090  001714                     __end_ofi2_change_pass:
  4091                           	opt callstack 0
  4092                           
  4093 ;; *************** function i2_lcdcmd *****************
  4094 ;; Defined at:
  4095 ;;		line 187 in file "Keypad_Security_Lock.c"
  4096 ;; Parameters:    Size  Location     Type
  4097 ;;  value           1    wreg     unsigned char 
  4098 ;; Auto vars:     Size  Location     Type
  4099 ;;  value           1    7[COMRAM] unsigned char 
  4100 ;; Return value:  Size  Location     Type
  4101 ;;                  1    wreg      void 
  4102 ;; Registers used:
  4103 ;;		wreg, status,2, status,0, cstack
  4104 ;; Tracked objects:
  4105 ;;		On entry : 0/0
  4106 ;;		On exit  : 0/0
  4107 ;;		Unchanged: 0/0
  4108 ;; Data sizes:     COMRAM   BANK0   BANK1   BANK2   BANK3   BANK4   BANK5
  4109 ;;      Params:         0       0       0       0       0       0       0
  4110 ;;      Locals:         1       0       0       0       0       0       0
  4111 ;;      Temps:          0       0       0       0       0       0       0
  4112 ;;      Totals:         1       0       0       0       0       0       0
  4113 ;;Total ram usage:        1 bytes
  4114 ;; Hardware stack levels used:    1
  4115 ;; Hardware stack levels required when called:    1
  4116 ;; This function calls:
  4117 ;;		i2_delay
  4118 ;; This function is called by:
  4119 ;;		_ISR
  4120 ;;		i2_master_pass_fun
  4121 ;;		i2_change_pass
  4122 ;; This function uses a non-reentrant model
  4123 ;;
  4124                           
  4125                           	psect	text16
  4126  001EC2                     __ptext16:
  4127                           	opt callstack 0
  4128  001EC2                     i2_lcdcmd:
  4129                           	opt callstack 0
  4130  001EC2  FFFF               	dw	65535	; assembler added errata NOP
  4131                           
  4132                           ;incstack = 0
  4133                           ;i2lcdcmd@value stored from wreg
  4134  001EC4  6E08               	movwf	i2lcdcmd@value^0,c
  4135  001EC6                     
  4136                           ;Keypad_Security_Lock.c: 188:     PORTD=value;
  4137  001EC6  C008  FF83         	movff	i2lcdcmd@value,3971	;volatile
  4138  001ECA                     
  4139                           ;Keypad_Security_Lock.c: 189:     PORTBbits.RB7=0;
  4140  001ECA  9E81               	bcf	129,7,c	;volatile
  4141  001ECC                     
  4142                           ;Keypad_Security_Lock.c: 190:     PORTBbits.RB6=0;
  4143  001ECC  9C81               	bcf	129,6,c	;volatile
  4144  001ECE                     
  4145                           ;Keypad_Security_Lock.c: 191:     PORTBbits.RB5=1;
  4146  001ECE  8A81               	bsf	129,5,c	;volatile
  4147  001ED0                     
  4148                           ;Keypad_Security_Lock.c: 192:     delay(20);
  4149  001ED0  0E00               	movlw	0
  4150  001ED2  6E02               	movwf	(i2delay@ms+1)^0,c
  4151  001ED4  0E14               	movlw	20
  4152  001ED6  6E01               	movwf	i2delay@ms^0,c
  4153  001ED8  EC3F  F00E         	call	i2_delay	;wreg free
  4154  001EDC                     
  4155                           ;Keypad_Security_Lock.c: 193:     PORTBbits.RB5=0;
  4156  001EDC  9A81               	bcf	129,5,c	;volatile
  4157  001EDE  0012               	return		;funcret
  4158  001EE0  FFFF               	dw	65535	; errata NOP
  4159  001EE2                     __end_ofi2_lcdcmd:
  4160                           	opt callstack 0
  4161                           
  4162 ;; *************** function i2_lcd_string *****************
  4163 ;; Defined at:
  4164 ;;		line 205 in file "Keypad_Security_Lock.c"
  4165 ;; Parameters:    Size  Location     Type
  4166 ;;  str             2    8[COMRAM] PTR unsigned char 
  4167 ;;		 -> STR_15(15), STR_14(13), STR_13(17), STR_12(15), 
  4168 ;;		 -> STR_11(10), STR_10(17), STR_9(17), STR_8(17), 
  4169 ;;		 -> STR_7(14), STR_6(14), STR_5(14), STR_4(15), 
  4170 ;;		 -> STR_3(9), STR_2(17), STR_1(15), 
  4171 ;;  num             1   10[COMRAM] unsigned char 
  4172 ;; Auto vars:     Size  Location     Type
  4173 ;;  lcd_string      2   13[COMRAM] unsigned int 
  4174 ;; Return value:  Size  Location     Type
  4175 ;;                  1    wreg      void 
  4176 ;; Registers used:
  4177 ;;		wreg, status,2, status,0, tblptrl, tblptrh, tblptru, cstack
  4178 ;; Tracked objects:
  4179 ;;		On entry : 0/0
  4180 ;;		On exit  : 0/0
  4181 ;;		Unchanged: 0/0
  4182 ;; Data sizes:     COMRAM   BANK0   BANK1   BANK2   BANK3   BANK4   BANK5
  4183 ;;      Params:         3       0       0       0       0       0       0
  4184 ;;      Locals:         2       0       0       0       0       0       0
  4185 ;;      Temps:          2       0       0       0       0       0       0
  4186 ;;      Totals:         7       0       0       0       0       0       0
  4187 ;;Total ram usage:        7 bytes
  4188 ;; Hardware stack levels used:    1
  4189 ;; Hardware stack levels required when called:    2
  4190 ;; This function calls:
  4191 ;;		i2_lcddata
  4192 ;; This function is called by:
  4193 ;;		i2_master_pass_fun
  4194 ;;		i2_change_pass
  4195 ;; This function uses a non-reentrant model
  4196 ;;
  4197                           
  4198                           	psect	text17
  4199  001D9A                     __ptext17:
  4200                           	opt callstack 0
  4201  001D9A                     i2_lcd_string:
  4202                           	opt callstack 0
  4203  001D9A  FFFF               	dw	65535	; assembler added errata NOP
  4204  001D9C                     
  4205                           ;Keypad_Security_Lock.c: 206:     unsigned int i;;Keypad_Security_Lock.c: 207:     for(i
      +                          =0;i<num;i++){
  4206  001D9C  0E00               	movlw	0
  4207  001D9E  6E0F               	movwf	(i2lcd_string@i+1)^0,c
  4208  001DA0  0E00               	movlw	0
  4209  001DA2  6E0E               	movwf	i2lcd_string@i^0,c
  4210  001DA4  EFE6  F00E         	goto	i2l2191
  4211  001DA8                     i2l2187:
  4212  001DA8  FFFF               	dw	65535	; assembler added errata NOP
  4213                           
  4214                           ;Keypad_Security_Lock.c: 208:         lcddata(str[i]);
  4215  001DAA  500E               	movf	i2lcd_string@i^0,w,c
  4216  001DAC  2409               	addwf	i2lcd_string@str^0,w,c
  4217  001DAE  6E0C               	movwf	??i2_lcd_string^0,c
  4218  001DB0  500F               	movf	(i2lcd_string@i+1)^0,w,c
  4219  001DB2  200A               	addwfc	(i2lcd_string@str+1)^0,w,c
  4220  001DB4  6E0D               	movwf	(??i2_lcd_string+1)^0,c
  4221  001DB6  C00C  FFF6         	movff	??i2_lcd_string,tblptrl
  4222  001DBA  C00D  FFF7         	movff	??i2_lcd_string+1,tblptrh
  4223  001DBE                     	if	0	;tblptru may be non-zero
  4224  001DBE                     	endif
  4225  001DBE                     	if	0	;tblptru may be non-zero
  4226  001DBE                     	endif
  4227  001DBE  0008               	tblrd		*
  4228  001DC0  FFFF               	dw	65535	; errata NOP
  4229  001DC2  50F5               	movf	tablat,w,c
  4230  001DC4  EC71  F00F         	call	i2_lcddata
  4231  001DC8                     
  4232                           ;Keypad_Security_Lock.c: 209:     }
  4233  001DC8  4A0E               	infsnz	i2lcd_string@i^0,f,c
  4234  001DCA  2A0F               	incf	(i2lcd_string@i+1)^0,f,c
  4235  001DCC                     i2l2191:
  4236  001DCC  FFFF               	dw	65535	; assembler added errata NOP
  4237  001DCE  500B               	movf	i2lcd_string@num^0,w,c
  4238  001DD0  6E0C               	movwf	??i2_lcd_string^0,c
  4239  001DD2  6A0D               	clrf	(??i2_lcd_string+1)^0,c
  4240  001DD4  500C               	movf	??i2_lcd_string^0,w,c
  4241  001DD6  5C0E               	subwf	i2lcd_string@i^0,w,c
  4242  001DD8  500D               	movf	(??i2_lcd_string+1)^0,w,c
  4243  001DDA  580F               	subwfb	(i2lcd_string@i+1)^0,w,c
  4244  001DDC  A0D8               	btfss	status,0,c
  4245  001DDE  EFF3  F00E         	goto	i2u191_41
  4246  001DE2  EFF6  F00E         	goto	i2u191_40
  4247  001DE6                     i2u191_41:
  4248  001DE6  FFFF               	dw	65535	; assembler added errata NOP
  4249  001DE8  EFD4  F00E         	goto	i2l2187
  4250  001DEC                     i2u191_40:
  4251  001DEC  FFFF               	dw	65535	; assembler added errata NOP
  4252  001DEE  0012               	return		;funcret
  4253  001DF0  FFFF               	dw	65535	; errata NOP
  4254  001DF2                     __end_ofi2_lcd_string:
  4255                           	opt callstack 0
  4256                           
  4257 ;; *************** function i2_lcddata *****************
  4258 ;; Defined at:
  4259 ;;		line 196 in file "Keypad_Security_Lock.c"
  4260 ;; Parameters:    Size  Location     Type
  4261 ;;  value           1    wreg     unsigned char 
  4262 ;; Auto vars:     Size  Location     Type
  4263 ;;  value           1    7[COMRAM] unsigned char 
  4264 ;; Return value:  Size  Location     Type
  4265 ;;                  1    wreg      void 
  4266 ;; Registers used:
  4267 ;;		wreg, status,2, status,0, cstack
  4268 ;; Tracked objects:
  4269 ;;		On entry : 0/0
  4270 ;;		On exit  : 0/0
  4271 ;;		Unchanged: 0/0
  4272 ;; Data sizes:     COMRAM   BANK0   BANK1   BANK2   BANK3   BANK4   BANK5
  4273 ;;      Params:         0       0       0       0       0       0       0
  4274 ;;      Locals:         1       0       0       0       0       0       0
  4275 ;;      Temps:          0       0       0       0       0       0       0
  4276 ;;      Totals:         1       0       0       0       0       0       0
  4277 ;;Total ram usage:        1 bytes
  4278 ;; Hardware stack levels used:    1
  4279 ;; Hardware stack levels required when called:    1
  4280 ;; This function calls:
  4281 ;;		i2_delay
  4282 ;; This function is called by:
  4283 ;;		i2_lcd_string
  4284 ;;		i2_master_pass_fun
  4285 ;;		i2_change_pass
  4286 ;; This function uses a non-reentrant model
  4287 ;;
  4288                           
  4289                           	psect	text18
  4290  001EE2                     __ptext18:
  4291                           	opt callstack 0
  4292  001EE2                     i2_lcddata:
  4293                           	opt callstack 0
  4294  001EE2  FFFF               	dw	65535	; assembler added errata NOP
  4295                           
  4296                           ;incstack = 0
  4297                           ;i2lcddata@value stored from wreg
  4298  001EE4  6E08               	movwf	i2lcddata@value^0,c
  4299  001EE6                     
  4300                           ;Keypad_Security_Lock.c: 197:     PORTD=value;
  4301  001EE6  C008  FF83         	movff	i2lcddata@value,3971	;volatile
  4302  001EEA                     
  4303                           ;Keypad_Security_Lock.c: 198:     PORTBbits.RB7=1;
  4304  001EEA  8E81               	bsf	129,7,c	;volatile
  4305  001EEC                     
  4306                           ;Keypad_Security_Lock.c: 199:     PORTBbits.RB6=0;
  4307  001EEC  9C81               	bcf	129,6,c	;volatile
  4308  001EEE                     
  4309                           ;Keypad_Security_Lock.c: 200:     PORTBbits.RB5=1;
  4310  001EEE  8A81               	bsf	129,5,c	;volatile
  4311  001EF0                     
  4312                           ;Keypad_Security_Lock.c: 201:     delay(20);
  4313  001EF0  0E00               	movlw	0
  4314  001EF2  6E02               	movwf	(i2delay@ms+1)^0,c
  4315  001EF4  0E14               	movlw	20
  4316  001EF6  6E01               	movwf	i2delay@ms^0,c
  4317  001EF8  EC3F  F00E         	call	i2_delay	;wreg free
  4318  001EFC                     
  4319                           ;Keypad_Security_Lock.c: 202:     PORTBbits.RB5=0;
  4320  001EFC  9A81               	bcf	129,5,c	;volatile
  4321  001EFE  0012               	return		;funcret
  4322  001F00  FFFF               	dw	65535	; errata NOP
  4323  001F02                     __end_ofi2_lcddata:
  4324                           	opt callstack 0
  4325                           
  4326 ;; *************** function i2_delay *****************
  4327 ;; Defined at:
  4328 ;;		line 180 in file "Keypad_Security_Lock.c"
  4329 ;; Parameters:    Size  Location     Type
  4330 ;;  ms              2    0[COMRAM] int 
  4331 ;; Auto vars:     Size  Location     Type
  4332 ;;  delay           2    5[COMRAM] int 
  4333 ;;  delay           2    3[COMRAM] int 
  4334 ;; Return value:  Size  Location     Type
  4335 ;;                  1    wreg      void 
  4336 ;; Registers used:
  4337 ;;		wreg, status,2, status,0
  4338 ;; Tracked objects:
  4339 ;;		On entry : 0/0
  4340 ;;		On exit  : 0/0
  4341 ;;		Unchanged: 0/0
  4342 ;; Data sizes:     COMRAM   BANK0   BANK1   BANK2   BANK3   BANK4   BANK5
  4343 ;;      Params:         2       0       0       0       0       0       0
  4344 ;;      Locals:         4       0       0       0       0       0       0
  4345 ;;      Temps:          1       0       0       0       0       0       0
  4346 ;;      Totals:         7       0       0       0       0       0       0
  4347 ;;Total ram usage:        7 bytes
  4348 ;; Hardware stack levels used:    1
  4349 ;; This function calls:
  4350 ;;		Nothing
  4351 ;; This function is called by:
  4352 ;;		i2_lcdcmd
  4353 ;;		i2_lcddata
  4354 ;;		i2_master_pass_fun
  4355 ;;		i2_change_pass
  4356 ;; This function uses a non-reentrant model
  4357 ;;
  4358                           
  4359                           	psect	text19
  4360  001C7E                     __ptext19:
  4361                           	opt callstack 0
  4362  001C7E                     i2_delay:
  4363                           	opt callstack 0
  4364  001C7E  FFFF               	dw	65535	; assembler added errata NOP
  4365  001C80                     
  4366                           ;Keypad_Security_Lock.c: 181:     int i,j;;Keypad_Security_Lock.c: 182:     for(i=0; i<m
      +                          s; i++)
  4367  001C80  0E00               	movlw	0
  4368  001C82  6E05               	movwf	(i2delay@i+1)^0,c
  4369  001C84  0E00               	movlw	0
  4370  001C86  6E04               	movwf	i2delay@i^0,c
  4371  001C88  EF60  F00E         	goto	i2l1853
  4372  001C8C                     i2l1841:
  4373  001C8C  FFFF               	dw	65535	; assembler added errata NOP
  4374                           
  4375                           ;Keypad_Security_Lock.c: 183:         for(j=0; j<75; j++);
  4376  001C8E  0E00               	movlw	0
  4377  001C90  6E07               	movwf	(i2delay@j+1)^0,c
  4378  001C92  0E00               	movlw	0
  4379  001C94  6E06               	movwf	i2delay@j^0,c
  4380  001C96                     i2l1847:
  4381  001C96  FFFF               	dw	65535	; assembler added errata NOP
  4382  001C98  4A06               	infsnz	i2delay@j^0,f,c
  4383  001C9A  2A07               	incf	(i2delay@j+1)^0,f,c
  4384  001C9C  BE07               	btfsc	(i2delay@j+1)^0,7,c
  4385  001C9E  EF5A  F00E         	goto	i2u130_41
  4386  001CA2  5007               	movf	(i2delay@j+1)^0,w,c
  4387  001CA4  E10A               	bnz	i2u130_40
  4388  001CA6  0E4B               	movlw	75
  4389  001CA8  5C06               	subwf	i2delay@j^0,w,c
  4390  001CAA  A0D8               	btfss	status,0,c
  4391  001CAC  EF5A  F00E         	goto	i2u130_41
  4392  001CB0  EF5D  F00E         	goto	i2u130_40
  4393  001CB4                     i2u130_41:
  4394  001CB4  FFFF               	dw	65535	; assembler added errata NOP
  4395  001CB6  EF4B  F00E         	goto	i2l1847
  4396  001CBA                     i2u130_40:
  4397  001CBA  FFFF               	dw	65535	; assembler added errata NOP
  4398  001CBC  4A04               	infsnz	i2delay@i^0,f,c
  4399  001CBE  2A05               	incf	(i2delay@i+1)^0,f,c
  4400  001CC0                     i2l1853:
  4401  001CC0  FFFF               	dw	65535	; assembler added errata NOP
  4402  001CC2  5001               	movf	i2delay@ms^0,w,c
  4403  001CC4  5C04               	subwf	i2delay@i^0,w,c
  4404  001CC6  5005               	movf	(i2delay@i+1)^0,w,c
  4405  001CC8  0A80               	xorlw	128
  4406  001CCA  6E03               	movwf	??i2_delay^0,c
  4407  001CCC  5002               	movf	(i2delay@ms+1)^0,w,c
  4408  001CCE  0A80               	xorlw	128
  4409  001CD0  5803               	subwfb	??i2_delay^0,w,c
  4410  001CD2  A0D8               	btfss	status,0,c
  4411  001CD4  EF6E  F00E         	goto	i2u131_41
  4412  001CD8  EF71  F00E         	goto	i2u131_40
  4413  001CDC                     i2u131_41:
  4414  001CDC  FFFF               	dw	65535	; assembler added errata NOP
  4415  001CDE  EF46  F00E         	goto	i2l1841
  4416  001CE2                     i2u131_40:
  4417  001CE2  FFFF               	dw	65535	; assembler added errata NOP
  4418  001CE4  0012               	return		;funcret
  4419  001CE6  FFFF               	dw	65535	; errata NOP
  4420  001CE8                     __end_ofi2_delay:
  4421                           	opt callstack 0
  4422                           
  4423 ;; *************** function i2_keypad *****************
  4424 ;; Defined at:
  4425 ;;		line 117 in file "Keypad_Security_Lock.c"
  4426 ;; Parameters:    Size  Location     Type
  4427 ;;		None
  4428 ;; Auto vars:     Size  Location     Type
  4429 ;;		None
  4430 ;; Return value:  Size  Location     Type
  4431 ;;                  2    0[COMRAM] int 
  4432 ;; Registers used:
  4433 ;;		wreg, status,2
  4434 ;; Tracked objects:
  4435 ;;		On entry : 0/0
  4436 ;;		On exit  : 0/0
  4437 ;;		Unchanged: 0/0
  4438 ;; Data sizes:     COMRAM   BANK0   BANK1   BANK2   BANK3   BANK4   BANK5
  4439 ;;      Params:         2       0       0       0       0       0       0
  4440 ;;      Locals:         0       0       0       0       0       0       0
  4441 ;;      Temps:          0       0       0       0       0       0       0
  4442 ;;      Totals:         2       0       0       0       0       0       0
  4443 ;;Total ram usage:        2 bytes
  4444 ;; Hardware stack levels used:    1
  4445 ;; This function calls:
  4446 ;;		Nothing
  4447 ;; This function is called by:
  4448 ;;		i2_master_pass_fun
  4449 ;;		i2_change_pass
  4450 ;; This function uses a non-reentrant model
  4451 ;;
  4452                           
  4453                           	psect	text20
  4454  001994                     __ptext20:
  4455                           	opt callstack 0
  4456  001994                     i2_keypad:
  4457                           	opt callstack 0
  4458  001994  FFFF               	dw	65535	; assembler added errata NOP
  4459  001996                     
  4460                           ;Keypad_Security_Lock.c: 119:     PORTCbits.RC0 =1;PORTCbits.RC1 =0;PORTCbits.RC2 =0;
  4461  001996  8082               	bsf	130,0,c	;volatile
  4462  001998  9282               	bcf	130,1,c	;volatile
  4463  00199A  9482               	bcf	130,2,c	;volatile
  4464                           
  4465                           ;Keypad_Security_Lock.c: 120:     if (PORTCbits.RC4==1){
  4466  00199C  A882               	btfss	130,4,c	;volatile
  4467  00199E  EFD3  F00C         	goto	i2u167_41
  4468  0019A2  EFD6  F00C         	goto	i2u167_40
  4469  0019A6                     i2u167_41:
  4470  0019A6  FFFF               	dw	65535	; assembler added errata NOP
  4471  0019A8  EFEA  F00C         	goto	i2l77
  4472  0019AC                     i2u167_40:
  4473  0019AC  FFFF               	dw	65535	; assembler added errata NOP
  4474  0019AE                     i2l78:
  4475  0019AE  FFFF               	dw	65535	; assembler added errata NOP
  4476  0019B0  B882               	btfsc	130,4,c	;volatile
  4477  0019B2  EFDD  F00C         	goto	i2u168_41
  4478  0019B6  EFE0  F00C         	goto	i2u168_40
  4479  0019BA                     i2u168_41:
  4480  0019BA  FFFF               	dw	65535	; assembler added errata NOP
  4481  0019BC  EFD7  F00C         	goto	i2l78
  4482  0019C0                     i2u168_40:
  4483  0019C0  FFFF               	dw	65535	; assembler added errata NOP
  4484  0019C2                     
  4485                           ;Keypad_Security_Lock.c: 122:         return 1;
  4486  0019C2  0E00               	movlw	0
  4487  0019C4  6E02               	movwf	(?i2_keypad+1)^0,c
  4488  0019C6  0E01               	movlw	1
  4489  0019C8  6E01               	movwf	?i2_keypad^0,c
  4490  0019CA  EF07  F00E         	goto	i2l81
  4491  0019CE                     i2l2087:
  4492  0019CE  FFFF               	dw	65535	; assembler added errata NOP
  4493  0019D0  EF07  F00E         	goto	i2l81
  4494  0019D4                     i2l77:
  4495  0019D4  FFFF               	dw	65535	; assembler added errata NOP
  4496  0019D6  AA82               	btfss	130,5,c	;volatile
  4497  0019D8  EFF0  F00C         	goto	i2u169_41
  4498  0019DC  EFF3  F00C         	goto	i2u169_40
  4499  0019E0                     i2u169_41:
  4500  0019E0  FFFF               	dw	65535	; assembler added errata NOP
  4501  0019E2  EF04  F00D         	goto	i2l83
  4502  0019E6                     i2u169_40:
  4503  0019E6  FFFF               	dw	65535	; assembler added errata NOP
  4504  0019E8                     i2l84:
  4505  0019E8  FFFF               	dw	65535	; assembler added errata NOP
  4506  0019EA  BA82               	btfsc	130,5,c	;volatile
  4507  0019EC  EFFA  F00C         	goto	i2u170_41
  4508  0019F0  EFFD  F00C         	goto	i2u170_40
  4509  0019F4                     i2u170_41:
  4510  0019F4  FFFF               	dw	65535	; assembler added errata NOP
  4511  0019F6  EFF4  F00C         	goto	i2l84
  4512  0019FA                     i2u170_40:
  4513  0019FA  FFFF               	dw	65535	; assembler added errata NOP
  4514  0019FC                     
  4515                           ;Keypad_Security_Lock.c: 126:         return 4;
  4516  0019FC  0E00               	movlw	0
  4517  0019FE  6E02               	movwf	(?i2_keypad+1)^0,c
  4518  001A00  0E04               	movlw	4
  4519  001A02  6E01               	movwf	?i2_keypad^0,c
  4520  001A04  EF07  F00E         	goto	i2l81
  4521  001A08                     i2l83:
  4522  001A08  FFFF               	dw	65535	; assembler added errata NOP
  4523  001A0A  AC82               	btfss	130,6,c	;volatile
  4524  001A0C  EF0A  F00D         	goto	i2u171_41
  4525  001A10  EF0D  F00D         	goto	i2u171_40
  4526  001A14                     i2u171_41:
  4527  001A14  FFFF               	dw	65535	; assembler added errata NOP
  4528  001A16  EF1E  F00D         	goto	i2l88
  4529  001A1A                     i2u171_40:
  4530  001A1A  FFFF               	dw	65535	; assembler added errata NOP
  4531  001A1C                     i2l89:
  4532  001A1C  FFFF               	dw	65535	; assembler added errata NOP
  4533  001A1E  BC82               	btfsc	130,6,c	;volatile
  4534  001A20  EF14  F00D         	goto	i2u172_41
  4535  001A24  EF17  F00D         	goto	i2u172_40
  4536  001A28                     i2u172_41:
  4537  001A28  FFFF               	dw	65535	; assembler added errata NOP
  4538  001A2A  EF0E  F00D         	goto	i2l89
  4539  001A2E                     i2u172_40:
  4540  001A2E  FFFF               	dw	65535	; assembler added errata NOP
  4541  001A30                     
  4542                           ;Keypad_Security_Lock.c: 130:         return 7;
  4543  001A30  0E00               	movlw	0
  4544  001A32  6E02               	movwf	(?i2_keypad+1)^0,c
  4545  001A34  0E07               	movlw	7
  4546  001A36  6E01               	movwf	?i2_keypad^0,c
  4547  001A38  EF07  F00E         	goto	i2l81
  4548  001A3C                     i2l88:
  4549  001A3C  FFFF               	dw	65535	; assembler added errata NOP
  4550  001A3E  AE82               	btfss	130,7,c	;volatile
  4551  001A40  EF24  F00D         	goto	i2u173_41
  4552  001A44  EF27  F00D         	goto	i2u173_40
  4553  001A48                     i2u173_41:
  4554  001A48  FFFF               	dw	65535	; assembler added errata NOP
  4555  001A4A  EF39  F00D         	goto	i2l82
  4556  001A4E                     i2u173_40:
  4557  001A4E  FFFF               	dw	65535	; assembler added errata NOP
  4558  001A50                     i2l94:
  4559  001A50  FFFF               	dw	65535	; assembler added errata NOP
  4560  001A52  BE82               	btfsc	130,7,c	;volatile
  4561  001A54  EF2E  F00D         	goto	i2u174_41
  4562  001A58  EF31  F00D         	goto	i2u174_40
  4563  001A5C                     i2u174_41:
  4564  001A5C  FFFF               	dw	65535	; assembler added errata NOP
  4565  001A5E  EF28  F00D         	goto	i2l94
  4566  001A62                     i2u174_40:
  4567  001A62  FFFF               	dw	65535	; assembler added errata NOP
  4568  001A64                     i2l2109:
  4569  001A64  FFFF               	dw	65535	; assembler added errata NOP
  4570                           
  4571                           ;Keypad_Security_Lock.c: 134:         return 0;
  4572  001A66  0E00               	movlw	0
  4573  001A68  6E02               	movwf	(?i2_keypad+1)^0,c
  4574  001A6A  0E00               	movlw	0
  4575  001A6C  6E01               	movwf	?i2_keypad^0,c
  4576  001A6E  EF07  F00E         	goto	i2l81
  4577  001A72                     i2l82:
  4578  001A72  FFFF               	dw	65535	; assembler added errata NOP
  4579                           
  4580                           ;Keypad_Security_Lock.c: 138:     PORTCbits.RC0 =0;PORTCbits.RC1 =1;PORTCbits.RC2 =0;
  4581  001A74  9082               	bcf	130,0,c	;volatile
  4582  001A76  8282               	bsf	130,1,c	;volatile
  4583  001A78  9482               	bcf	130,2,c	;volatile
  4584                           
  4585                           ;Keypad_Security_Lock.c: 139:     if (PORTCbits.RC4==1){
  4586  001A7A  A882               	btfss	130,4,c	;volatile
  4587  001A7C  EF42  F00D         	goto	i2u175_41
  4588  001A80  EF45  F00D         	goto	i2u175_40
  4589  001A84                     i2u175_41:
  4590  001A84  FFFF               	dw	65535	; assembler added errata NOP
  4591  001A86  EF56  F00D         	goto	i2l97
  4592  001A8A                     i2u175_40:
  4593  001A8A  FFFF               	dw	65535	; assembler added errata NOP
  4594  001A8C                     i2l98:
  4595  001A8C  FFFF               	dw	65535	; assembler added errata NOP
  4596  001A8E  B882               	btfsc	130,4,c	;volatile
  4597  001A90  EF4C  F00D         	goto	i2u176_41
  4598  001A94  EF4F  F00D         	goto	i2u176_40
  4599  001A98                     i2u176_41:
  4600  001A98  FFFF               	dw	65535	; assembler added errata NOP
  4601  001A9A  EF46  F00D         	goto	i2l98
  4602  001A9E                     i2u176_40:
  4603  001A9E  FFFF               	dw	65535	; assembler added errata NOP
  4604  001AA0                     
  4605                           ;Keypad_Security_Lock.c: 141:         return 2;
  4606  001AA0  0E00               	movlw	0
  4607  001AA2  6E02               	movwf	(?i2_keypad+1)^0,c
  4608  001AA4  0E02               	movlw	2
  4609  001AA6  6E01               	movwf	?i2_keypad^0,c
  4610  001AA8  EF07  F00E         	goto	i2l81
  4611  001AAC                     i2l97:
  4612  001AAC  FFFF               	dw	65535	; assembler added errata NOP
  4613  001AAE  AA82               	btfss	130,5,c	;volatile
  4614  001AB0  EF5C  F00D         	goto	i2u177_41
  4615  001AB4  EF5F  F00D         	goto	i2u177_40
  4616  001AB8                     i2u177_41:
  4617  001AB8  FFFF               	dw	65535	; assembler added errata NOP
  4618  001ABA  EF70  F00D         	goto	i2l102
  4619  001ABE                     i2u177_40:
  4620  001ABE  FFFF               	dw	65535	; assembler added errata NOP
  4621  001AC0                     i2l103:
  4622  001AC0  FFFF               	dw	65535	; assembler added errata NOP
  4623  001AC2  BA82               	btfsc	130,5,c	;volatile
  4624  001AC4  EF66  F00D         	goto	i2u178_41
  4625  001AC8  EF69  F00D         	goto	i2u178_40
  4626  001ACC                     i2u178_41:
  4627  001ACC  FFFF               	dw	65535	; assembler added errata NOP
  4628  001ACE  EF60  F00D         	goto	i2l103
  4629  001AD2                     i2u178_40:
  4630  001AD2  FFFF               	dw	65535	; assembler added errata NOP
  4631  001AD4                     
  4632                           ;Keypad_Security_Lock.c: 145:         return 5;
  4633  001AD4  0E00               	movlw	0
  4634  001AD6  6E02               	movwf	(?i2_keypad+1)^0,c
  4635  001AD8  0E05               	movlw	5
  4636  001ADA  6E01               	movwf	?i2_keypad^0,c
  4637  001ADC  EF07  F00E         	goto	i2l81
  4638  001AE0                     i2l102:
  4639  001AE0  FFFF               	dw	65535	; assembler added errata NOP
  4640  001AE2  AC82               	btfss	130,6,c	;volatile
  4641  001AE4  EF76  F00D         	goto	i2u179_41
  4642  001AE8  EF79  F00D         	goto	i2u179_40
  4643  001AEC                     i2u179_41:
  4644  001AEC  FFFF               	dw	65535	; assembler added errata NOP
  4645  001AEE  EF8A  F00D         	goto	i2l107
  4646  001AF2                     i2u179_40:
  4647  001AF2  FFFF               	dw	65535	; assembler added errata NOP
  4648  001AF4                     i2l108:
  4649  001AF4  FFFF               	dw	65535	; assembler added errata NOP
  4650  001AF6  BC82               	btfsc	130,6,c	;volatile
  4651  001AF8  EF80  F00D         	goto	i2u180_41
  4652  001AFC  EF83  F00D         	goto	i2u180_40
  4653  001B00                     i2u180_41:
  4654  001B00  FFFF               	dw	65535	; assembler added errata NOP
  4655  001B02  EF7A  F00D         	goto	i2l108
  4656  001B06                     i2u180_40:
  4657  001B06  FFFF               	dw	65535	; assembler added errata NOP
  4658  001B08                     
  4659                           ;Keypad_Security_Lock.c: 149:         return 8;
  4660  001B08  0E00               	movlw	0
  4661  001B0A  6E02               	movwf	(?i2_keypad+1)^0,c
  4662  001B0C  0E08               	movlw	8
  4663  001B0E  6E01               	movwf	?i2_keypad^0,c
  4664  001B10  EF07  F00E         	goto	i2l81
  4665  001B14                     i2l107:
  4666  001B14  FFFF               	dw	65535	; assembler added errata NOP
  4667  001B16  AE82               	btfss	130,7,c	;volatile
  4668  001B18  EF90  F00D         	goto	i2u181_41
  4669  001B1C  EF93  F00D         	goto	i2u181_40
  4670  001B20                     i2u181_41:
  4671  001B20  FFFF               	dw	65535	; assembler added errata NOP
  4672  001B22  EFA0  F00D         	goto	i2l101
  4673  001B26                     i2u181_40:
  4674  001B26  FFFF               	dw	65535	; assembler added errata NOP
  4675  001B28                     i2l113:
  4676  001B28  FFFF               	dw	65535	; assembler added errata NOP
  4677  001B2A  BE82               	btfsc	130,7,c	;volatile
  4678  001B2C  EF9A  F00D         	goto	i2u182_41
  4679  001B30  EF9D  F00D         	goto	i2u182_40
  4680  001B34                     i2u182_41:
  4681  001B34  FFFF               	dw	65535	; assembler added errata NOP
  4682  001B36  EF94  F00D         	goto	i2l113
  4683  001B3A                     i2u182_40:
  4684  001B3A  FFFF               	dw	65535	; assembler added errata NOP
  4685  001B3C  EF32  F00D         	goto	i2l2109
  4686  001B40                     i2l101:
  4687  001B40  FFFF               	dw	65535	; assembler added errata NOP
  4688                           
  4689                           ;Keypad_Security_Lock.c: 157:     PORTCbits.RC0 =0;PORTCbits.RC1 =0;PORTCbits.RC2 =1;
  4690  001B42  9082               	bcf	130,0,c	;volatile
  4691  001B44  9282               	bcf	130,1,c	;volatile
  4692  001B46  8482               	bsf	130,2,c	;volatile
  4693                           
  4694                           ;Keypad_Security_Lock.c: 158:     if (PORTCbits.RC4==1){
  4695  001B48  A882               	btfss	130,4,c	;volatile
  4696  001B4A  EFA9  F00D         	goto	i2u183_41
  4697  001B4E  EFAC  F00D         	goto	i2u183_40
  4698  001B52                     i2u183_41:
  4699  001B52  FFFF               	dw	65535	; assembler added errata NOP
  4700  001B54  EFBD  F00D         	goto	i2l116
  4701  001B58                     i2u183_40:
  4702  001B58  FFFF               	dw	65535	; assembler added errata NOP
  4703  001B5A                     i2l117:
  4704  001B5A  FFFF               	dw	65535	; assembler added errata NOP
  4705  001B5C  B882               	btfsc	130,4,c	;volatile
  4706  001B5E  EFB3  F00D         	goto	i2u184_41
  4707  001B62  EFB6  F00D         	goto	i2u184_40
  4708  001B66                     i2u184_41:
  4709  001B66  FFFF               	dw	65535	; assembler added errata NOP
  4710  001B68  EFAD  F00D         	goto	i2l117
  4711  001B6C                     i2u184_40:
  4712  001B6C  FFFF               	dw	65535	; assembler added errata NOP
  4713  001B6E                     
  4714                           ;Keypad_Security_Lock.c: 160:         return 3;
  4715  001B6E  0E00               	movlw	0
  4716  001B70  6E02               	movwf	(?i2_keypad+1)^0,c
  4717  001B72  0E03               	movlw	3
  4718  001B74  6E01               	movwf	?i2_keypad^0,c
  4719  001B76  EF07  F00E         	goto	i2l81
  4720  001B7A                     i2l116:
  4721  001B7A  FFFF               	dw	65535	; assembler added errata NOP
  4722  001B7C  AA82               	btfss	130,5,c	;volatile
  4723  001B7E  EFC3  F00D         	goto	i2u185_41
  4724  001B82  EFC6  F00D         	goto	i2u185_40
  4725  001B86                     i2u185_41:
  4726  001B86  FFFF               	dw	65535	; assembler added errata NOP
  4727  001B88  EFD7  F00D         	goto	i2l121
  4728  001B8C                     i2u185_40:
  4729  001B8C  FFFF               	dw	65535	; assembler added errata NOP
  4730  001B8E                     i2l122:
  4731  001B8E  FFFF               	dw	65535	; assembler added errata NOP
  4732  001B90  BA82               	btfsc	130,5,c	;volatile
  4733  001B92  EFCD  F00D         	goto	i2u186_41
  4734  001B96  EFD0  F00D         	goto	i2u186_40
  4735  001B9A                     i2u186_41:
  4736  001B9A  FFFF               	dw	65535	; assembler added errata NOP
  4737  001B9C  EFC7  F00D         	goto	i2l122
  4738  001BA0                     i2u186_40:
  4739  001BA0  FFFF               	dw	65535	; assembler added errata NOP
  4740  001BA2                     
  4741                           ;Keypad_Security_Lock.c: 164:         return 6;
  4742  001BA2  0E00               	movlw	0
  4743  001BA4  6E02               	movwf	(?i2_keypad+1)^0,c
  4744  001BA6  0E06               	movlw	6
  4745  001BA8  6E01               	movwf	?i2_keypad^0,c
  4746  001BAA  EF07  F00E         	goto	i2l81
  4747  001BAE                     i2l121:
  4748  001BAE  FFFF               	dw	65535	; assembler added errata NOP
  4749  001BB0  AC82               	btfss	130,6,c	;volatile
  4750  001BB2  EFDD  F00D         	goto	i2u187_41
  4751  001BB6  EFE0  F00D         	goto	i2u187_40
  4752  001BBA                     i2u187_41:
  4753  001BBA  FFFF               	dw	65535	; assembler added errata NOP
  4754  001BBC  EFF1  F00D         	goto	i2l126
  4755  001BC0                     i2u187_40:
  4756  001BC0  FFFF               	dw	65535	; assembler added errata NOP
  4757  001BC2                     i2l127:
  4758  001BC2  FFFF               	dw	65535	; assembler added errata NOP
  4759  001BC4  BC82               	btfsc	130,6,c	;volatile
  4760  001BC6  EFE7  F00D         	goto	i2u188_41
  4761  001BCA  EFEA  F00D         	goto	i2u188_40
  4762  001BCE                     i2u188_41:
  4763  001BCE  FFFF               	dw	65535	; assembler added errata NOP
  4764  001BD0  EFE1  F00D         	goto	i2l127
  4765  001BD4                     i2u188_40:
  4766  001BD4  FFFF               	dw	65535	; assembler added errata NOP
  4767  001BD6                     
  4768                           ;Keypad_Security_Lock.c: 168:         return 9;
  4769  001BD6  0E00               	movlw	0
  4770  001BD8  6E02               	movwf	(?i2_keypad+1)^0,c
  4771  001BDA  0E09               	movlw	9
  4772  001BDC  6E01               	movwf	?i2_keypad^0,c
  4773  001BDE  EF07  F00E         	goto	i2l81
  4774  001BE2                     i2l126:
  4775  001BE2  FFFF               	dw	65535	; assembler added errata NOP
  4776  001BE4  AE82               	btfss	130,7,c	;volatile
  4777  001BE6  EFF7  F00D         	goto	i2u189_41
  4778  001BEA  EFFA  F00D         	goto	i2u189_40
  4779  001BEE                     i2u189_41:
  4780  001BEE  FFFF               	dw	65535	; assembler added errata NOP
  4781  001BF0  EFE7  F00C         	goto	i2l2087
  4782  001BF4                     i2u189_40:
  4783  001BF4  FFFF               	dw	65535	; assembler added errata NOP
  4784  001BF6                     i2l132:
  4785  001BF6  FFFF               	dw	65535	; assembler added errata NOP
  4786  001BF8  BE82               	btfsc	130,7,c	;volatile
  4787  001BFA  EF01  F00E         	goto	i2u190_41
  4788  001BFE  EF04  F00E         	goto	i2u190_40
  4789  001C02                     i2u190_41:
  4790  001C02  FFFF               	dw	65535	; assembler added errata NOP
  4791  001C04  EFFB  F00D         	goto	i2l132
  4792  001C08                     i2u190_40:
  4793  001C08  FFFF               	dw	65535	; assembler added errata NOP
  4794  001C0A  EF32  F00D         	goto	i2l2109
  4795  001C0E                     i2l81:
  4796  001C0E  FFFF               	dw	65535	; assembler added errata NOP
  4797  001C10  0012               	return		;funcret
  4798  001C12  FFFF               	dw	65535	; errata NOP
  4799  001C14                     __end_ofi2_keypad:
  4800                           	opt callstack 0
  4801                           
  4802 ;; *************** function i2_EE_WRT *****************
  4803 ;; Defined at:
  4804 ;;		line 226 in file "Keypad_Security_Lock.c"
  4805 ;; Parameters:    Size  Location     Type
  4806 ;;		None
  4807 ;; Auto vars:     Size  Location     Type
  4808 ;;		None
  4809 ;; Return value:  Size  Location     Type
  4810 ;;                  1    wreg      void 
  4811 ;; Registers used:
  4812 ;;		wreg, status,2
  4813 ;; Tracked objects:
  4814 ;;		On entry : 0/0
  4815 ;;		On exit  : 0/0
  4816 ;;		Unchanged: 0/0
  4817 ;; Data sizes:     COMRAM   BANK0   BANK1   BANK2   BANK3   BANK4   BANK5
  4818 ;;      Params:         0       0       0       0       0       0       0
  4819 ;;      Locals:         0       0       0       0       0       0       0
  4820 ;;      Temps:          0       0       0       0       0       0       0
  4821 ;;      Totals:         0       0       0       0       0       0       0
  4822 ;;Total ram usage:        0 bytes
  4823 ;; Hardware stack levels used:    1
  4824 ;; This function calls:
  4825 ;;		Nothing
  4826 ;; This function is called by:
  4827 ;;		i2_change_pass
  4828 ;; This function uses a non-reentrant model
  4829 ;;
  4830                           
  4831                           	psect	text21
  4832  001E56                     __ptext21:
  4833                           	opt callstack 0
  4834  001E56                     i2_EE_WRT:
  4835                           	opt callstack 0
  4836  001E56  FFFF               	dw	65535	; assembler added errata NOP
  4837  001E58                     
  4838                           ;Keypad_Security_Lock.c: 227:     EECON1bits.EEPGD=0;
  4839  001E58  9EA6               	bcf	166,7,c	;volsfr
  4840                           
  4841                           ;Keypad_Security_Lock.c: 228:     EECON1bits.CFGS=0;
  4842  001E5A  9CA6               	bcf	166,6,c	;volsfr
  4843                           
  4844                           ;Keypad_Security_Lock.c: 229:     EECON1bits.WREN=1;
  4845  001E5C  84A6               	bsf	166,2,c	;volsfr
  4846  001E5E                     
  4847                           ;Keypad_Security_Lock.c: 231:     EECON2=0x55;
  4848  001E5E  0E55               	movlw	85
  4849  001E60  6EA7               	movwf	167,c	;volsfr
  4850                           
  4851                           ;Keypad_Security_Lock.c: 232:     EECON2=0xAA;
  4852  001E62  0EAA               	movlw	170
  4853  001E64  6EA7               	movwf	167,c	;volsfr
  4854  001E66                     
  4855                           ;Keypad_Security_Lock.c: 233:     EECON1bits.WR=1;
  4856  001E66  82A6               	bsf	166,1,c	;volsfr
  4857  001E68                     i2l163:
  4858  001E68  FFFF               	dw	65535	; assembler added errata NOP
  4859  001E6A  A8A1               	btfss	161,4,c	;volatile
  4860  001E6C  EF3A  F00F         	goto	i2u66_41
  4861  001E70  EF3D  F00F         	goto	i2u66_40
  4862  001E74                     i2u66_41:
  4863  001E74  FFFF               	dw	65535	; assembler added errata NOP
  4864  001E76  EF34  F00F         	goto	i2l163
  4865  001E7A                     i2u66_40:
  4866  001E7A  FFFF               	dw	65535	; assembler added errata NOP
  4867  001E7C                     
  4868                           ;Keypad_Security_Lock.c: 236:     PIR2bits.EEIF=0;
  4869  001E7C  98A1               	bcf	161,4,c	;volatile
  4870  001E7E  0012               	return		;funcret
  4871  001E80  FFFF               	dw	65535	; errata NOP
  4872  001E82                     __end_ofi2_EE_WRT:
  4873                           	opt callstack 0
  4874                           
  4875                           	psect	rparam
  4876  0000                     
  4877                           	psect	temp
  4878  000047                     btemp:
  4879                           	opt callstack 0
  4880  000047                     	ds	1
  4881  0000                     int$flags	set	btemp
  4882  0000                     wtemp8	set	btemp+1
  4883  0000                     ttemp5	set	btemp+1
  4884  0000                     ttemp6	set	btemp+4
  4885  0000                     ttemp7	set	btemp+8
  4886                           tosu	equ	0xFFF
  4887                           tosh	equ	0xFFE
  4888                           tosl	equ	0xFFD
  4889                           stkptr	equ	0xFFC
  4890                           pclatu	equ	0xFFB
  4891                           pclath	equ	0xFFA
  4892                           pcl	equ	0xFF9
  4893                           tblptru	equ	0xFF8
  4894                           tblptrh	equ	0xFF7
  4895                           tblptrl	equ	0xFF6
  4896                           tablat	equ	0xFF5
  4897                           prodh	equ	0xFF4
  4898                           prodl	equ	0xFF3
  4899                           indf0	equ	0xFEF
  4900                           postinc0	equ	0xFEE
  4901                           postdec0	equ	0xFED
  4902                           preinc0	equ	0xFEC
  4903                           plusw0	equ	0xFEB
  4904                           fsr0h	equ	0xFEA
  4905                           fsr0l	equ	0xFE9
  4906                           wreg	equ	0xFE8
  4907                           indf1	equ	0xFE7
  4908                           postinc1	equ	0xFE6
  4909                           postdec1	equ	0xFE5
  4910                           preinc1	equ	0xFE4
  4911                           plusw1	equ	0xFE3
  4912                           fsr1h	equ	0xFE2
  4913                           fsr1l	equ	0xFE1
  4914                           bsr	equ	0xFE0
  4915                           indf2	equ	0xFDF
  4916                           postinc2	equ	0xFDE
  4917                           postdec2	equ	0xFDD
  4918                           preinc2	equ	0xFDC
  4919                           plusw2	equ	0xFDB
  4920                           fsr2h	equ	0xFDA
  4921                           fsr2l	equ	0xFD9
  4922                           status	equ	0xFD8


Data Sizes:
    Strings     176
    Constant    10
    Data        0
    BSS         32
    Persistent  0
    Stack       0

Auto Spaces:
    Space          Size  Autos    Used
    COMRAM           94     38      70
    BANK0           160      6       6
    BANK1           256      0       0
    BANK2           256      0       0
    BANK3           256      0       0
    BANK4           256      0       0
    BANK5           256      0       0

Pointer List with Targets:

    lcd_string@str	PTR unsigned char  size(2) Largest target is 17
		 -> STR_15(CODE[15]), STR_14(CODE[13]), STR_13(CODE[17]), STR_12(CODE[15]), 
		 -> STR_11(CODE[10]), STR_10(CODE[17]), STR_9(CODE[17]), STR_8(CODE[17]), 
		 -> STR_7(CODE[14]), STR_6(CODE[14]), STR_5(CODE[14]), STR_4(CODE[15]), 
		 -> STR_3(CODE[9]), STR_2(CODE[17]), STR_1(CODE[15]), 


Critical Paths under _main in COMRAM

    _lcd_initialize->_lcdcmd
    _check_pass->_lcd_string
    _read_pass->_EE_READ
    _master_pass_fun->_lcd_string
    _change_pass->_lcd_string
    _lcdcmd->_delay
    _lcd_string->_lcddata
    _lcddata->_delay

Critical Paths under _ISR in COMRAM

    _ISR->i2_master_pass_fun
    i2_master_pass_fun->i2_change_pass
    i2_change_pass->i2_lcd_string
    i2_lcdcmd->i2_delay
    i2_lcd_string->i2_lcddata
    i2_lcddata->i2_delay

Critical Paths under _main in BANK0

    _main->_check_pass
    _check_pass->_master_pass_fun
    _master_pass_fun->_change_pass

Critical Paths under _ISR in BANK0

    None.

Critical Paths under _main in BANK1

    None.

Critical Paths under _ISR in BANK1

    None.

Critical Paths under _main in BANK2

    None.

Critical Paths under _ISR in BANK2

    None.

Critical Paths under _main in BANK3

    None.

Critical Paths under _ISR in BANK3

    None.

Critical Paths under _main in BANK4

    None.

Critical Paths under _ISR in BANK4

    None.

Critical Paths under _main in BANK5

    None.

Critical Paths under _ISR in BANK5

    None.

Call Graph Tables:

 ---------------------------------------------------------------------------------
 (Depth) Function   	        Calls       Base Space   Used Autos Params    Refs
 ---------------------------------------------------------------------------------
 (0) _main                                                 0     0      0   22778
                         _check_pass
                     _lcd_initialize
 ---------------------------------------------------------------------------------
 (1) _lcd_initialize                                       0     0      0    1067
                             _lcdcmd
 ---------------------------------------------------------------------------------
 (1) _check_pass                                           2     2      0   21711
                                              4 BANK0      2     2      0
                              _delay
                             _keypad
                         _lcd_string
                             _lcdcmd
                            _lcddata
                    _master_pass_fun
                          _read_pass
 ---------------------------------------------------------------------------------
 (2) _read_pass                                            0     0      0       0
                            _EE_READ
 ---------------------------------------------------------------------------------
 (3) _EE_READ                                              2     0      2       0
                                             23 COMRAM     2     0      2
 ---------------------------------------------------------------------------------
 (2) _master_pass_fun                                      2     2      0   14474
                                              2 BANK0      2     2      0
                        _change_pass
                              _delay
                             _keypad
                         _lcd_string
                             _lcdcmd
                            _lcddata
 ---------------------------------------------------------------------------------
 (3) _change_pass                                          2     2      0    7237
                                              0 BANK0      2     2      0
                             _EE_WRT
                              _delay
                             _keypad
                         _lcd_string
                             _lcdcmd
                            _lcddata
 ---------------------------------------------------------------------------------
 (2) _lcdcmd                                               1     1      0    1067
                                             30 COMRAM     1     1      0
                              _delay
 ---------------------------------------------------------------------------------
 (3) _lcd_string                                           7     4      3    3897
                                             31 COMRAM     7     4      3
                            _lcddata
 ---------------------------------------------------------------------------------
 (3) _lcddata                                              1     1      0    1067
                                             30 COMRAM     1     1      0
                              _delay
 ---------------------------------------------------------------------------------
 (3) _delay                                                7     5      2    1036
                                             23 COMRAM     7     5      2
 ---------------------------------------------------------------------------------
 (3) _keypad                                               2     0      2       0
                                             23 COMRAM     2     0      2
 ---------------------------------------------------------------------------------
 (4) _EE_WRT                                               0     0      0       0
 ---------------------------------------------------------------------------------
 Estimated maximum stack depth 4
 ---------------------------------------------------------------------------------
 (Depth) Function   	        Calls       Base Space   Used Autos Params    Refs
 ---------------------------------------------------------------------------------
 (7) _ISR                                                  4     4      0    3290
                                             19 COMRAM     4     4      0
                           i2_lcdcmd
                  i2_master_pass_fun
 ---------------------------------------------------------------------------------
 (8) i2_master_pass_fun                                    2     2      0    3046
                                             17 COMRAM     2     2      0
                      i2_change_pass
                            i2_delay
                           i2_keypad
                       i2_lcd_string
                           i2_lcdcmd
                          i2_lcddata
 ---------------------------------------------------------------------------------
 (9) i2_change_pass                                        2     2      0    1523
                                             15 COMRAM     2     2      0
                           i2_EE_WRT
                            i2_delay
                           i2_keypad
                       i2_lcd_string
                           i2_lcdcmd
                          i2_lcddata
 ---------------------------------------------------------------------------------
 (9) i2_lcdcmd                                             1     1      0     244
                                              7 COMRAM     1     1      0
                            i2_delay
 ---------------------------------------------------------------------------------
 (9) i2_lcd_string                                         7     4      3     698
                                              8 COMRAM     7     4      3
                          i2_lcddata
 ---------------------------------------------------------------------------------
 (9) i2_lcddata                                            1     1      0     244
                                              7 COMRAM     1     1      0
                            i2_delay
 ---------------------------------------------------------------------------------
 (10) i2_delay                                             7     5      2     222
                                              0 COMRAM     7     5      2
 ---------------------------------------------------------------------------------
 (9) i2_keypad                                             2     0      2       0
                                              0 COMRAM     2     0      2
 ---------------------------------------------------------------------------------
 (10) i2_EE_WRT                                            0     0      0       0
 ---------------------------------------------------------------------------------
 Estimated maximum stack depth 10
 ---------------------------------------------------------------------------------

 Call Graph Graphs:

 _main (ROOT)
   _check_pass
     _delay
     _keypad
     _lcd_string
       _lcddata
         _delay
     _lcdcmd
       _delay
     _lcddata
       _delay
     _master_pass_fun
       _change_pass
         _EE_WRT
         _delay
         _keypad
         _lcd_string
           _lcddata
             _delay
         _lcdcmd
           _delay
         _lcddata
           _delay
       _delay
       _keypad
       _lcd_string
         _lcddata
           _delay
       _lcdcmd
         _delay
       _lcddata
         _delay
     _read_pass
       _EE_READ
   _lcd_initialize
     _lcdcmd
       _delay

 _ISR (ROOT)
   i2_lcdcmd
     i2_delay
   i2_master_pass_fun
     i2_change_pass
       i2_EE_WRT
       i2_delay
       i2_keypad
       i2_lcd_string
         i2_lcddata
           i2_delay
       i2_lcdcmd
         i2_delay
       i2_lcddata
         i2_delay
     i2_delay
     i2_keypad
     i2_lcd_string
       i2_lcddata
         i2_delay
     i2_lcdcmd
       i2_delay
     i2_lcddata
       i2_delay

 Address spaces:
Name               Size   Autos  Total    Cost      Usage
BIGRAM             5FF      0       0      16        0.0%
EEDATA             100      0       0       0        0.0%
BITBANK5           100      0       0      14        0.0%
BANK5              100      0       0      15        0.0%
BITBANK4           100      0       0      12        0.0%
BANK4              100      0       0      13        0.0%
BITBANK3           100      0       0      10        0.0%
BANK3              100      0       0      11        0.0%
BITBANK2           100      0       0       7        0.0%
BANK2              100      0       0       8        0.0%
BITBANK1           100      0       0       5        0.0%
BANK1              100      0       0       6        0.0%
BITBANK0            A0      0       0       3        0.0%
BANK0               A0      6       6       4        3.8%
BITCOMRAM           5E      0       0       0        0.0%
COMRAM              5E     26      46       1       74.5%
BITSFR_1             0      0       0     200        0.0%
SFR_1                0      0       0     200        0.0%
BITSFR               0      0       0     200        0.0%
SFR                  0      0       0     200        0.0%
STACK                0      0       0       2        0.0%
NULL                 0      0       0       0        0.0%
ABS                  0      0      4C       9        0.0%
DATA                 0      0      4C      17        0.0%
CODE                 0      0       0       0        0.0%


Microchip Technology PIC18 Macro Assembler V2.10 build 88905656 
Symbol Table                                                                                   Fri Sep 04 23:50:44 2020

                                                                       l81 198E  
                                                                       l82 17F2  
                                                                       l83 1788  
                                                                       l84 1768  
                                                                       l77 1754  
                                                                       l94 17D0  
                                                                       l78 172E  
                                                                       l88 17BC  
                                                                       l97 182C  
                                                                       l89 179C  
                                                                       l98 180C  
                                                             __CFG_CP0$OFF 000000  
                                                             __CFG_CP1$OFF 000000  
                                                             __CFG_CP2$OFF 000000  
                                                             __CFG_CP3$OFF 000000  
                                                              __CFG_OSC$HS 000000  
                                                                      l101 18C0  
                                                                      l102 1860  
                                                                      l103 1840  
                                                                      l121 192E  
                                                                      l113 18A8  
                                                                      l122 190E  
                                                                      l210 0AFA  
                                                                      l107 1894  
                                                                      l132 1976  
                                                                      l116 18FA  
                                                                      l108 1874  
                                                                      l117 18DA  
                                                                      l126 1962  
                                                                      l142 1C7A  
                                                                      l127 1942  
                                                                      l160 1F4C  
                                                                      l208 0AA8  
                                                                      l145 1E9E  
                                                                      l154 1D96  
                                                                      l163 1E3C  
                                                                      l148 1EBE  
                                                                      l165 1E50  
                                                                      l245 0E5A  
                                                                      l157 1F3A  
                                                                      l166 1E52  
                                                                      l281 1D3E  
                                                                      l277 1404  
                                                                      l278 1466  
                                                                      _GIE 007F97  
                                                             __CFG_CPB$OFF 000000  
                                                             __CFG_CPD$OFF 000000  
                                                                      _ISR 0008  
                                                             __CFG_BOR$OFF 000000  
                                                              lcdcmd@value 001F  
                                                             __CFG_BORV$25 000000  
                                                                      wreg 000FE8  
                                                          __end_of_EE_READ 1F50  
                                                             __CFG_LVP$OFF 000000  
                                                                     ?_ISR 0001  
                                                        i2_master_pass_fun 0E60  
                                                             __CFG_WDT$OFF 000000  
                                                                     l3001 1D10  
                                                                     l3003 1D20  
                                                                     l3011 06BE  
                                                                     l3005 1D2C  
                                                                     l3101 09FE  
                                                                     l3021 070C  
                                                                     l3013 06D4  
                                                                     l3007 1D3C  
                                                                     l3103 0A04  
                                                                     l3111 0A2E  
                                                                     l3031 0758  
                                                                     l3023 0718  
                                                                     l3015 06DA  
                                                                     l3121 0A6C  
                                                                     l3113 0A46  
                                                                     l3105 0A14  
                                                                     l3041 07AC  
                                                                     l3033 0768  
                                                                     l3025 0728  
                                                                     l3017 06EA  
                                                                     l3009 1F22  
                                                                     l3115 0A48  
                                                                     l3123 0A74  
                                                                     l3107 0A1C  
                                                                     l3051 0810  
                                                                     l3043 07B2  
                                                                     l3027 0732  
                                                                     l3035 076E  
                                                                     l3019 06F4  
                                                                     l3141 0ACE  
                                                                     l3125 0A8C  
                                                                     l3117 0A4E  
                                                                     l3109 0A28  
                                                                     l3061 0874  
                                                                     l3053 0816  
                                                                     l3045 07D4  
                                                                     l3037 077C  
                                                                     l3029 074C  
                                                                     l3143 0AD4  
                                                                     l3135 0AAC  
                                                                     l3127 0A8E  
                                                                     l3119 0A5E  
                                                                     l3071 08D8  
                                                                     l3063 087A  
                                                                     l3055 0838  
                                                                     l3047 07E0  
                                                                     l3039 07A0  
                                                                     l3151 1E14  
                                                                     l3145 0AF6  
                                                                     l3137 0AB2  
                                                                     l3129 0A94  
                                                                     l3081 093C  
                                                                     l3073 08DE  
                                                                     l3065 089C  
                                                                     l3057 0844  
                                                                     l3049 0804  
                                                                     l3153 1E16  
                                                                     l3139 0AC2  
                                                                     l3091 098A  
                                                                     l3083 0942  
                                                                     l3075 0900  
                                                                     l3067 08A8  
                                                                     l3059 0868  
                                                                     l3155 1E18  
                                                                     l3147 1DF2  
                                                                     l3093 09A6  
                                                                     l3085 0964  
                                                                     l3077 090C  
                                                                     l3069 08CC  
                                                                     l3157 1E1A  
                                                                     l3149 1E10  
                                                                     l3095 09C2  
                                                                     l3087 096A  
                                                                     l3079 0930  
                                                                     l3159 1E1E  
                                                                     l2721 17E4  
                                                                     l2713 17B0  
                                                                     l2705 177C  
                                                                     l2801 11B8  
                                                                     l3097 09DE  
                                                                     l3089 096E  
                                                                     l2811 1204  
                                                                     l2803 11BE  
                                                                     l3099 09FA  
                                                                     l2661 1C2C  
                                                                     l2653 1C16  
                                                                     l2821 1222  
                                                                     l2813 1210  
                                                                     l2805 11CE  
                                                                     l2901 0B02  
                                                                     l2743 1888  
                                                                     l2735 1854  
                                                                     l2727 1820  
                                                                     l2663 1C32  
                                                                     l2655 1C22  
                                                                     l2671 1EAA  
                                                                     l2831 1284  
                                                                     l2823 1244  
                                                                     l2815 1214  
                                                                     l2807 11D4  
                                                                     l2911 0B4E  
                                                                     l2903 0B08  
                                                                     l2665 1C52  
                                                                     l2673 1EAC  
                                                                     l2681 1E86  
                                                                     l2841 12C0  
                                                                     l2833 1288  
                                                                     l2825 1250  
                                                                     l2817 1218  
                                                                     l2809 11E0  
                                                                     l2921 0BB2  
                                                                     l2913 0B5A  
                                                                     l2905 0B18  
                                                                     l2667 1C56  
                                                                     l2675 1EAE  
                                                                     l2691 1E9C  
                                                                     l2683 1E8A  
                                                                     l2851 12FC  
                                                                     l2843 12E4  
                                                                     l2835 128C  
                                                                     l2827 1274  
                                                                     l2819 121C  
                                                                     l2931 0C16  
                                                                     l2923 0BBE  
                                                                     l2915 0B60  
                                                                     l2907 0B1E  
                                                                     l2773 1956  
                                                                     l2765 1922  
                                                                     l2757 18EE  
                                                                     l2693 1716  
                                                                     l2677 1EB0  
                                                                     l2669 1EA6  
                                                                     l2685 1E8C  
                                                                     l2861 1360  
                                                                     l2853 1302  
                                                                     l2845 12F0  
                                                                     l2837 1292  
                                                                     l2829 1280  
                                                                     l2941 0C7A  
                                                                     l2933 0C22  
                                                                     l2925 0BC4  
                                                                     l2917 0B82  
                                                                     l2909 0B2A  
                                                                     l2679 1EBC  
                                                                     l2791 1D74  
                                                                     l2687 1E8E  
                                                                     l2871 1394  
                                                                     l2863 1364  
                                                                     l2855 1324  
                                                                     l2847 12F4  
                                                                     l2839 12B4  
                                                                     l2951 0CDE  
                                                                     l2943 0C86  
                                                                     l2935 0C28  
                                                                     l2927 0BE6  
                                                                     l2919 0B8E  
                                                                     l2793 1E2C  
                                                                     l2697 1742  
                                                                     l2785 1D44  
                                                                     l2689 1E90  
                                                                     l2881 13D8  
                                                                     l2873 13A0  
                                                                     l2865 1368  
                                                                     l2857 1330  
                                                                     l2849 12F8  
                                                                     l2961 0D42  
                                                                     l2953 0CEA  
                                                                     l2945 0C8C  
                                                                     l2937 0C4A  
                                                                     l2929 0BF2  
                                                                     l2795 1E32  
                                                                     l2699 174E  
                                                                     l2787 1D50  
                                                                     l2891 1422  
                                                                     l2883 13DC  
                                                                     l2875 13C4  
                                                                     l2867 136C  
                                                                     l2859 1354  
                                                                     l2971 0DF4  
                                                                     l2963 0D6E  
                                                                     l2955 0CF0  
                                                                     l2947 0CAE  
                                                                     l2939 0C56  
                                                                     l2797 1E3A  
                                                                     l2789 1D70  
                                                                     l2893 1438  
                                                                     l2885 13E2  
                                                                     l2877 13D0  
                                                                     l2869 1372  
                                                                     l2981 0E14  
                                                                     l2973 0DFA  
                                                                     l2965 0D9A  
                                                                     l2957 0D12  
                                                                     l2949 0CBA  
                                                                     l2895 1444  
                                                                     l2887 1406  
                                                                     l2879 13D4  
                                                                     l2983 0E24  
                                                                     l2975 0DFE  
                                                                     l2967 0DC6  
                                                                     l2959 0D1A  
                                                                     l2799 1F40  
                                                                     l2991 1CEA  
                                                                     l2897 144A  
                                                                     l2889 1412  
                                                                     l2985 0E30  
                                                                     l2969 0DF2  
                                                                     l2977 0E04  
                                                                     l2993 1CEC  
                                                                     l2899 1450  
                                                                     l2987 0E36  
                                                                     l2979 0E0C  
                                                                     l2995 1CF0  
                                                                     l2989 0E58  
                                                                     l2997 1CFC  
                                                                     l2999 1D0C  
                                                                     STR_1 066F  
                                                                     STR_2 064F  
                                                                     STR_3 06B2  
                                                                     STR_4 0660  
                                                                     STR_5 068D  
                                                                     STR_6 068D  
                                                                     STR_7 068D  
                                                                     STR_8 063E  
                                                                     STR_9 062D  
                                                                     u3000 0D10  
                                                                     u3001 0D0A  
                                                                     u3010 0D40  
                                                                     u3011 0D3A  
                                                                     u3020 0D6C  
                                                                     u3100 07D2  
                                                                     u3021 0D66  
                                                                     u3101 07CC  
                                                                     u3030 0D98  
                                                                     u3110 0802  
                                                                     u3031 0D92  
                                                                     u3111 07FC  
                                                                     u3040 0DC4  
                                                                     u3200 09A4  
                                                                     u3120 0836  
                                                                     u3041 0DBE  
                                                                     u3201 099E  
                                                                     u3121 0830  
                                                                     u3050 0DF0  
                                                                     u3210 09C0  
                                                                     u3130 0866  
                                                                     u3051 0DEA  
                                                                     u3211 09BA  
                                                                     u3131 0860  
                                                                     u3220 09DC  
                                                                     u3140 089A  
                                                                     u3060 06D2  
                                                                     u3221 09D6  
                                                                     u3141 0894  
                                                                     u3061 06CC  
                                                                     u3230 09F8  
                                                                     u3150 08CA  
                                                                     u3070 070A  
                                                                     u3231 09F2  
                                                                     u3151 08C4  
                                                                     u3071 0704  
                                                                     u2600 17AE  
                                                                     u3240 0A44  
                                                                     u3160 08FE  
                                                                     u3080 074A  
                                                                     u2601 17A8  
                                                                     u3241 0A3E  
                                                                     u3161 08F8  
                                                                     u3081 0744  
                                                                     u2610 17CE  
                                                                     u2530 1C50  
                                                                     u3250 0A8A  
                                                                     u3170 092E  
                                                                     u3090 079E  
                                                                     u2611 17C8  
                                                                     u2531 1C4A  
                                                                     u3251 0A84  
                                                                     u3171 0928  
                                                                     u3091 0798  
                                                                     u2700 18BA  
                                                                     u2620 17E2  
                                                                     u2540 1C78  
                                                                     u3180 0962  
                                                                     u2701 18B4  
                                                                     u2621 17DC  
                                                                     u2541 1C72  
                                                                     u3181 095C  
                                                                     u2710 18D8  
                                                                     u2630 180A  
                                                                     u2550 172C  
                                                                     u3190 0988  
                                                                     u2711 18D2  
                                                                     u2631 1804  
                                                                     u2551 1726  
                                                                     u3191 0982  
                                                                     u2800 1E4E  
                                                                     u2720 18EC  
                                                                     u2640 181E  
                                                                     u2560 1740  
                                                                     u2801 1E48  
                                                                     u2721 18E6  
                                                                     u2641 1818  
                                                                     u2561 173A  
                                                                     u2730 190C  
                                                                     u2650 183E  
                                                                     u2570 1766  
                                                                     u2810 1202  
                                                                     u2731 1906  
                                                                     u2651 1838  
                                                                     u2571 1760  
                                                                     u2811 11FC  
                                                                     u2740 1920  
                                                                     u2660 1852  
                                                                     u2580 177A  
                                                                     u2900 1402  
                                                                     u2820 1242  
                                                                     u2741 191A  
                                                                     u2661 184C  
                                                                     u2581 1774  
                                                                     u2901 13FC  
                                                                     u2821 123C  
                                                                     u2750 1940  
                                                                     u2670 1872  
                                                                     u2590 179A  
                                                                     u2830 1272  
                                                                     u2910 0B4C  
                                                                     u2751 193A  
                                                                     u2671 186C  
                                                                     u2591 1794  
                                                                     u2831 126C  
                                                                     u2911 0B46  
                                                                     u2760 1954  
                                                                     u2680 1886  
                                                                     u2840 12B2  
                                                                     u2920 0B80  
                                                                     u2761 194E  
                                                                     u2681 1880  
                                                                     u2841 12AC  
                                                                     u2921 0B7A  
                                                                     u2770 1974  
                                                                     u2690 18A6  
                                                                     u2850 12E2  
                                                                     u2930 0BB0  
                                                                     u2771 196E  
                                                                     u2691 18A0  
                                                                     u2851 12DC  
                                                                     u2931 0BAA  
                                                                     u2780 1988  
                                                                     u2860 1322  
                                                                     u2940 0BE4  
                                                                     u2781 1982  
                                                                     u2861 131C  
                                                                     u2941 0BDE  
                                                                     u2790 1D94  
                                                                     u2870 1352  
                                                                     u2950 0C14  
                                                                     u2791 1D8E  
                                                                     u2871 134C  
                                                                     u2951 0C0E  
                                                                     u2880 1392  
                                                                     u2960 0C48  
                                                                     u2881 138C  
                                                                     u2961 0C42  
                                                                     u2890 13C2  
                                                                     u2970 0C78  
                                                                     u2891 13BC  
                                                                     u2971 0C72  
                                                                     u2980 0CAC  
                                                                     u2981 0CA6  
                                                                     u2990 0CDC  
                                                                     u2991 0CD6  
                                                                     i2l81 1C0E  
                                                                     i2l82 1A72  
                                                                     i2l66 003C  
                                                                     i2l83 1A08  
                                                                     i2l84 19E8  
                                                                     i2l77 19D4  
                                                                     i2l94 1A50  
                                                                     i2l78 19AE  
                                                                     i2l88 1A3C  
                                                                     i2l97 1AAC  
                                                                     i2l89 1A1C  
                                                                     i2l98 1A8C  
                                                       ?i2_master_pass_fun 0001  
                                                             __CFG_STVR$ON 000000  
                                                                     _main 1DF2  
                                                             lcddata@value 001F  
                                                                     btemp 0047  
                                                          __end_ofi2_delay 1CE8  
                                                                     start 0054  
                                                              lcd_string@i 0025  
                                                      ??i2_master_pass_fun 0012  
                                                  i2master_pass_fun@temp_1 0012  
                                                             ___param_bank 000000  
                                                                    ??_ISR 0014  
                                                            __CFG_OSCS$OFF 000000  
                                                                    ?_main 0001  
                                                                    _EEADR 000FA9  
                                                                    STR_10 061C  
                                                                    STR_11 06A8  
                                                                    STR_12 067E  
                                                                    STR_13 060B  
                                                                    STR_14 069B  
                                                                    STR_15 066F  
                                                         __end_ofi2_EE_WRT 1E82  
                                                                    i2l101 1B40  
                                                                    i2l102 1AE0  
                                                                    i2l103 1AC0  
                                                                    i2l121 1BAE  
                                                                    i2l113 1B28  
                                                                    i2l122 1B8E  
                                                                    i2l107 1B14  
                                                                    i2l132 1BF6  
                                                                    i2l116 1B7A  
                                                                    i2l108 1AF4  
                                                                    i2l117 1B5A  
                                                                    i2l126 1BE2  
                                                                    i2l142 1CE4  
                                                                    i2l127 1BC2  
                                                                    i2l145 1EDE  
                                                                    i2l154 1DEE  
                                                                    i2l163 1E68  
                                                                    i2l148 1EFE  
                                                                    i2l165 1E7C  
                                                                    i2l245 11B0  
                                                                    i2l166 1E7E  
                                                                    i2l277 16AE  
                                                                    i2l278 1710  
                                                                    _PORTA 000F80  
                                                                    _PORTC 000F82  
                                                                    _PORTD 000F83  
                                                                    _TRISA 000F92  
                                                                    _TRISB 000F93  
                                                                    _TRISC 000F94  
                                                                    _TRISD 000F95  
                                                                    _TRISE 000F96  
                                                            __CFG_PWRT$OFF 000000  
                                                            __CFG_WRT0$OFF 000000  
                                                            __CFG_WRT1$OFF 000000  
                                                            __CFG_WRT2$OFF 000000  
                                                            __CFG_WRT3$OFF 000000  
                                                __end_ofi2_master_pass_fun 11B6  
                                                           __CFG_EBTR0$OFF 000000  
                                                           __CFG_EBTR1$OFF 000000  
                                                           __CFG_EBTR2$OFF 000000  
                                                           __CFG_EBTR3$OFF 000000  
                                                          __end_of_lcddata 1EC2  
                                                            __CFG_WRTB$OFF 000000  
                                                            __CFG_WRTC$OFF 000000  
                                                            __CFG_WRTD$OFF 000000  
                                                                    _check 003B  
                                                           __CFG_EBTRB$OFF 000000  
                                                                    _delay 1C14  
                                                                    _count 0045  
                                                     __size_of_change_pass 02B4  
                                                                    tablat 000FF5  
                                                                    ttemp5 0048  
                                                                    ttemp6 004B  
                                                                    ttemp7 004F  
                                                                    status 000FD8  
                                                                    wtemp8 0048  
                                                         __end_ofi2_lcdcmd 1EE2  
                                                        ??_master_pass_fun 0027  
                                                         __end_ofi2_keypad 1C14  
                                                    __size_ofi2_lcd_string 0058  
                                                          __initialization 1F02  
                                                   __size_ofi2_change_pass 02AA  
                                                             __end_of_main 1E2A  
                                                       __size_ofi2_lcddata 0020  
                                                        change_pass@temp_1 0060  
                                                                   ??_main 0027  
                                                                ??_EE_READ 001A  
                                                            __activetblptr 000001  
                                                                   ?_delay 0018  
                                                                   _EEDATA 000FA8  
                                                                   _EECON2 000FA7  
                                                             i2_lcd_string 1D9A  
                                                                ??i2_delay 0003  
                                                                   _INT0IE 007F94  
                                                                   _INT0IF 007F91  
                                                                   _EE_WRT 1E2A  
                                                                   i2l2101 1A30  
                                                                   i2l2131 1B08  
                                                                   i2l2123 1AD4  
                                                                   i2l2115 1AA0  
                                                                   i2l2109 1A64  
                                                                   i2l2301 146C  
                                                                   i2l2311 14B6  
                                                                   i2l2303 1472  
                                                                   i2l1345 1E58  
                                                                   i2l2161 1BD6  
                                                                   i2l2153 1BA2  
                                                                   i2l2145 1B6E  
                                                                   i2l2081 1996  
                                                                   i2l2321 14D4  
                                                                   i2l2313 14C2  
                                                                   i2l2305 1482  
                                                                   i2l1347 1E5E  
                                                                   i2l2331 1534  
                                                                   i2l2323 14F6  
                                                                   i2l2315 14C6  
                                                                   i2l2307 1488  
                                                                   i2l1349 1E66  
                                                                   i2l2093 19FC  
                                                                   i2l2085 19C2  
                                                                   i2l2181 1ED0  
                                                                   i2l2173 1EC6  
                                                                   i2l2341 1570  
                                                                   i2l2333 1538  
                                                                   i2l2325 1502  
                                                                   i2l2317 14CA  
                                                                   i2l2309 1494  
                                                                   i2l2087 19CE  
                                                                   i2l2191 1DCC  
                                                                   i2l2183 1EDC  
                                                                   i2l2175 1ECA  
                                                                   i2l2351 15AA  
                                                                   i2l2343 1592  
                                                                   i2l2335 153C  
                                                                   i2l2327 1524  
                                                                   i2l2319 14CE  
                                                                   i2l2185 1D9C  
                                                                   i2l2177 1ECC  
                                                                   i2l2361 160C  
                                                                   i2l2353 15B0  
                                                                   i2l2345 159E  
                                                                   i2l2337 1542  
                                                                   i2l2329 1530  
                                                                   i2l2601 10C4  
                                                                   i2l2187 1DA8  
                                                                   i2l2179 1ECE  
                                                                   i2l2371 1640  
                                                                   i2l2363 1610  
                                                                   i2l2355 15D2  
                                                                   i2l2347 15A2  
                                                                   i2l2339 1564  
                                                                   i2l2611 1150  
                                                                   i2l2603 10F0  
                                                                   i2l2189 1DC8  
                                                                   i2l2381 1682  
                                                                   i2l2373 164C  
                                                                   i2l2365 1614  
                                                                   i2l2357 15DE  
                                                                   i2l2349 15A6  
                                                                   i2l2621 117A  
                                                                   i2l2613 1154  
                                                                   i2l2605 111C  
                                                                   i2l2541 0E68  
                                                                   i2l2391 16CC  
                                                                   i2l2383 1686  
                                                                   i2l2375 166E  
                                                                   i2l2367 1618  
                                                                   i2l2359 1600  
                                                                   i2l2623 1186  
                                                                   i2l2607 1148  
                                                                   i2l2615 115A  
                                                                   i2l2551 0EB8  
                                                                   i2l2543 0E78  
                                                                   i2l2631 002E  
                                                                   i2l1841 1C8C  
                                                                   i2l2393 16E2  
                                                                   i2l2385 168C  
                                                                   i2l2377 167A  
                                                                   i2l2369 161E  
                                                                   i2l2625 118C  
                                                                   i2l2617 1162  
                                                                   i2l2609 114A  
                                                                   i2l2561 0F1A  
                                                                   i2l2553 0EBE  
                                                                   i2l2545 0E7E  
                                                                   i2l2633 0030  
                                                                   i2l1851 1CBC  
                                                                   i2l2395 16EE  
                                                                   i2l2387 16B0  
                                                                   i2l2379 167E  
                                                                   i2l2627 11AE  
                                                                   i2l2619 116A  
                                                                   i2l2571 0F7C  
                                                                   i2l2563 0F20  
                                                                   i2l2555 0EE0  
                                                                   i2l2547 0E8A  
                                                                   i2l2539 0E62  
                                                                   i2l2635 0036  
                                                                   i2l1853 1CC0  
                                                                   i2l2397 16F4  
                                                                   i2l2389 16BC  
                                                                   i2l2581 0FDE  
                                                                   i2l2573 0F82  
                                                                   i2l2565 0F42  
                                                                   i2l2557 0EEC  
                                                                   i2l2549 0EAC  
                                                                   i2l2637 003A  
                                                                   i2l2629 001C  
                                                                   i2l1847 1C96  
                                                                   i2l1839 1C80  
                                                                   i2l2399 16FA  
                                                                   i2l2591 1040  
                                                                   i2l2583 0FE4  
                                                                   i2l2575 0FA4  
                                                                   i2l2567 0F4E  
                                                                   i2l2559 0F0E  
                                                                   i2l1849 1C9C  
                                                                   i2l2593 1046  
                                                                   i2l2585 1006  
                                                                   i2l2577 0FB0  
                                                                   i2l2569 0F70  
                                                                   i2l1971 1EEC  
                                                                   i2l2595 1068  
                                                                   i2l2587 1012  
                                                                   i2l2579 0FD2  
                                                                   i2l1973 1EEE  
                                                                   i2l2597 1070  
                                                                   i2l2589 1034  
                                                                   i2l1975 1EF0  
                                                                   i2l1967 1EE6  
                                                                   i2l2599 1098  
                                                                   i2l1977 1EFC  
                                                                   i2l1969 1EEA  
                                                           __CFG_WDTPS$128 000000  
                                                                   _lcdcmd 1E82  
                                                                   _keypad 1714  
                                                                   delay@i 001B  
                                                                   delay@j 001D  
                                                                   clear_0 1F08  
                                                                ??_lcddata 001F  
                                                             __mediumconst 0000  
                                               __size_ofi2_master_pass_fun 0356  
                                                                   tblptrh 000FF7  
                                                                   tblptrl 000FF6  
                                                                   tblptru 000FF8  
                                                            i2_change_pass 146A  
                                                         ??_lcd_initialize 0020  
                                                        __end_ofi2_lcddata 1F02  
                                                            lcd_string@num 0022  
                                                            lcd_string@str 0020  
                                                               __accesstop 0060  
                                                  __end_of__initialization 1F0E  
                                                            ___rparam_used 000001  
                                                                ?i2_EE_WRT 0001  
                                                           i2lcddata@value 0008  
                                                           __pcstackCOMRAM 0001  
                                                            __end_of_delay 1C7E  
                                                                ?i2_lcdcmd 0001  
                                                                ?i2_keypad 0001  
                                                           ?i2_change_pass 0001  
                                                                  ??_delay 001A  
                                                                  ?_EE_WRT 0001  
                                                               _check_pass 06BC  
                                                       __size_of_read_pass 005A  
                                                               ??i2_EE_WRT 0001  
                                                                  ?_lcdcmd 0001  
                                                                  ?_keypad 0018  
                                                                  _EE_READ 1F3E  
                                                               ??i2_lcdcmd 0008  
                                                               ??i2_keypad 0003  
                                                          _master_pass_fun 0B00  
                                                                  i2u66_40 1E7A  
                                                                  i2u66_41 1E74  
                                                               _lcd_string 1D42  
                                                                  i2_delay 1C7E  
                                                          __size_of_EE_WRT 002C  
                                                                  __Hparam 0000  
                                                                  __Lparam 0000  
                                                             __psmallconst 0600  
                                                          __size_of_lcdcmd 0020  
                                                                  _check_m 0031  
                                                                  __pcinit 1F02  
                                                          __size_of_keypad 0280  
                                                                  __ramtop 0600  
                                                                  __ptext0 1DF2  
                                                                  __ptext1 1F20  
                                                                  __ptext2 06BC  
                                                                  __ptext3 1CE8  
                                                                  __ptext4 1F3E  
                                                                  __ptext5 0B00  
                                                                  __ptext6 11B6  
                                                                  __ptext7 1E82  
                                                                  __ptext8 1D42  
                                                                  __ptext9 1EA2  
                                                                  _lcddata 1EA2  
                                                             __size_of_ISR 004C  
                                                          ??i2_change_pass 0010  
                                                                  delay@ms 0018  
                                                            ??_change_pass 0027  
                                                        __end_of_read_pass 1D42  
                                                     end_of_initialization 1F0E  
                                                              ?_check_pass 0001  
                                                                  postinc0 000FEE  
                                                  __end_of_master_pass_fun 0E60  
                                                                _PORTAbits 000F80  
                                                                _PORTBbits 000F81  
                                                                _PORTCbits 000F82  
                                                              ?_lcd_string 0020  
                                                      __end_of_change_pass 146A  
                                                           __end_of_EE_WRT 1E56  
                                                                i2_lcddata 1EE2  
                                                                i2delay@ms 0001  
                                                        __size_ofi2_EE_WRT 002C  
                                                           __end_of_lcdcmd 1EA2  
                                                      __size_of_check_pass 0444  
                                                           __end_of_keypad 1994  
                                                      start_initialization 1F02  
                                                              __end_of_ISR 0054  
                                                        __size_ofi2_lcdcmd 0020  
                                                        __size_ofi2_keypad 0280  
                                                                 ??_EE_WRT 0018  
                                                               ?i2_lcddata 0001  
                                                                 ??_lcdcmd 001F  
                                                           check_pass@temp 0064  
                                                      __size_of_lcd_string 0058  
                                                                 ??_keypad 001A  
                                                         ?_master_pass_fun 0001  
                                                                 ?_EE_READ 0018  
                                                              __pbssCOMRAM 0027  
                                                            i2lcdcmd@value 0008  
                                                              _change_pass 11B6  
                                                            __pcstackBANK0 0060  
                                                                 ?i2_delay 0001  
                                                  __size_of_lcd_initialize 001E  
                                                          i2lcd_string@num 000B  
                                                            i2lcd_string@i 000E  
                                                          i2lcd_string@str 0009  
                                                                __pintcode 0008  
                                                                 ?_lcddata 0001  
                                                              __smallconst 0600  
                                                           __size_of_delay 006A  
                                                            ?i2_lcd_string 0009  
                                                                _read_pass 1CE8  
                                                             ??_check_pass 0027  
                                                      __end_of_master_pass 060B  
                                                              ??i2_lcddata 0008  
                                                                 i2_EE_WRT 1E56  
                                                                 i2u130_40 1CBA  
                                                                 i2u210_40 1562  
                                                                 i2u130_41 1CB4  
                                                                 i2u210_41 155C  
                                                                 i2u131_40 1CE2  
                                                                 i2u211_40 1590  
                                                                 i2u131_41 1CDC  
                                                                 i2u211_41 158A  
                                                                 i2u212_40 15D0  
                                                                 i2u212_41 15CA  
                                                                 i2u213_40 15FE  
                                                                 i2u213_41 15F8  
                                                                 i2u214_40 163E  
                                                                 i2u214_41 1638  
                                                                 i2u215_40 166C  
                                                                 i2u207_40 14B4  
                                                                 i2u215_41 1666  
                                                                 i2u207_41 14AE  
                                                                 i2u216_40 16AC  
                                                                 i2u208_40 14F4  
                                                                 i2u240_40 0F40  
                                                                 i2u216_41 16A6  
                                                                 i2u208_41 14EE  
                                                                 i2u240_41 0F3A  
                                                                 i2u209_40 1522  
                                                                 i2u241_40 0F6E  
                                                                 i2u209_41 151C  
                                                                 i2u241_41 0F68  
                                                                 i2u170_40 19FA  
                                                                 i2u250_40 111A  
                                                                 i2u242_40 0FA2  
                                                                 i2u170_41 19F4  
                                                                 i2u250_41 1114  
                                                                 i2u242_41 0F9C  
                                                                 i2u171_40 1A1A  
                                                                 i2u251_40 1146  
                                                                 i2u243_40 0FD0  
                                                                 i2u171_41 1A14  
                                                                 i2u251_41 1140  
                                                                 i2u243_41 0FCA  
                                                                 i2u180_40 1B06  
                                                                 i2u172_40 1A2E  
                                                                 i2u244_40 1004  
                                                                 i2u252_40 002C  
                                                                 i2u180_41 1B00  
                                                                 i2u172_41 1A28  
                                                                 i2u244_41 0FFE  
                                                                 i2u252_41 0026  
                                                                 i2u181_40 1B26  
                                                                 i2u173_40 1A4E  
                                                                 i2u245_40 1032  
                                                                 i2u237_40 0EAA  
                                                                 i2u181_41 1B20  
                                                                 i2u173_41 1A48  
                                                                 i2u245_41 102C  
                                                                 i2u237_41 0EA4  
                                                                 i2u190_40 1C08  
                                                                 i2u182_40 1B3A  
                                                                 i2u174_40 1A62  
                                                                 i2u246_40 1066  
                                                                 i2u238_40 0EDE  
                                                                 i2u190_41 1C02  
                                                                 i2u182_41 1B34  
                                                                 i2u174_41 1A5C  
                                                                 i2u246_41 1060  
                                                                 i2u238_41 0ED8  
                                                                 i2u183_40 1B58  
                                                                 i2u175_40 1A8A  
                                                                 i2u167_40 19AC  
                                                                 i2u191_40 1DEC  
                                                                 i2u247_40 1096  
                                                                 i2u239_40 0F0C  
                                                                 i2u183_41 1B52  
                                                                 i2u175_41 1A84  
                                                                 i2u167_41 19A6  
                                                                 i2u191_41 1DE6  
                                                                 i2u247_41 1090  
                                                                 i2u239_41 0F06  
                                                                 i2u184_40 1B6C  
                                                                 i2u176_40 1A9E  
                                                                 i2u168_40 19C0  
                                                                 i2u248_40 10C2  
                                                                 i2u184_41 1B66  
                                                                 i2u176_41 1A98  
                                                                 i2u168_41 19BA  
                                                                 i2u248_41 10BC  
                                                                 i2u185_40 1B8C  
                                                                 i2u177_40 1ABE  
                                                                 i2u169_40 19E6  
                                                                 i2u249_40 10EE  
                                                                 i2u185_41 1B86  
                                                                 i2u177_41 1AB8  
                                                                 i2u169_41 19E0  
                                                                 i2u249_41 10E8  
                                                                 i2u186_40 1BA0  
                                                                 i2u178_40 1AD2  
                                                                 i2u186_41 1B9A  
                                                                 i2u178_41 1ACC  
                                                                 i2u187_40 1BC0  
                                                                 i2u179_40 1AF2  
                                                                 i2u187_41 1BBA  
                                                                 i2u179_41 1AEC  
                                                                 _PIR2bits 000FA1  
                                                                 i2u188_40 1BD4  
                                                                 i2u188_41 1BCE  
                                                                 i2u189_40 1BF4  
                                                                 i2u189_41 1BEE  
                                                       __end_of_check_pass 0B00  
                                                                 i2_lcdcmd 1EC2  
                                                         __size_of_EE_READ 0012  
                                                                 i2_keypad 1994  
                                                                 i2delay@i 0004  
                                                                 i2delay@j 0006  
                                                    __end_ofi2_change_pass 1714  
                                                           ??i2_lcd_string 000C  
                                                             ??_lcd_string 0023  
                                                               ?_read_pass 0001  
                                                         __size_ofi2_delay 006A  
                                                               _EECON1bits 000FA6  
                                                                 __Hrparam 0000  
                                                                 __Lrparam 0000  
                                                             __Lsmallconst 0600  
                                                       __end_of_lcd_string 1D9A  
                                                         __size_of_lcddata 0020  
                                                              _master_pass 0601  
                                                                 __ptext10 1C14  
                                                                 __ptext11 1714  
                                                                 __ptext20 1994  
                                                                 __ptext12 1E2A  
                                                                 __ptext21 1E56  
                                                                 __ptext14 0E60  
                                                                 __ptext15 146A  
                                                                 __ptext16 1EC2  
                                                                 __ptext17 1D9A  
                                                                 __ptext18 1EE2  
                                                                 __ptext19 1C7E  
                                                      i2change_pass@temp_1 0010  
                                                            __size_of_main 0038  
                                                           _lcd_initialize 1F20  
                                                                 _password 0027  
                                                    master_pass_fun@temp_1 0062  
                                                                 int$flags 0047  
                                                             ?_change_pass 0001  
                                                              ??_read_pass 001A  
                                                                 intlevel2 1F50  
                                                   __end_of_lcd_initialize 1F3E  
                                                     __end_ofi2_lcd_string 1DF2  
                                                 __size_of_master_pass_fun 0360  
                                                          ?_lcd_initialize 0001  
